(dp1
S''
(dp2
S''
F0
sS'What'
p3
F0.023255813953488372
sS'Thank'
p4
F0.003875968992248062
sS'Then,'
p5
F0.003875968992248062
sS'Bottom'
p6
F0.003875968992248062
sS'We\xe2\x80\x99ll'
p7
F0.003875968992248062
sS"We're"
p8
F0.003875968992248062
sS'Collectively,'
p9
F0.003875968992248062
sS'Under'
p10
F0.003875968992248062
sS'Company\xe2\x80\x99s'
p11
F0.003875968992248062
sS'Developers'
p12
F0.0077519379844961239
sS'Across'
p13
F0.003875968992248062
sS'Today'
p14
F0.011627906976744186
sS'We'
p15
F0.19767441860465115
sS'By'
p16
F0.003875968992248062
sS'Organizations'
p17
F0.003875968992248062
sS'Last'
p18
F0.003875968992248062
sS'Of'
p19
F0.003875968992248062
sS'While'
p20
F0.011627906976744186
sS'Stuff'
p21
F0.01937984496124031
sS"I'm"
p22
F0.011627906976744186
sS'Finally,'
p23
F0.003875968992248062
sS'Having'
p24
F0.003875968992248062
sS'Computing'
p25
F0.003875968992248062
sS'Over'
p26
F0.0077519379844961239
sS'Therefore,'
p27
F0.003875968992248062
sS'Now,'
p28
F0.003875968992248062
sS'For'
p29
F0.0077519379844961239
sS'Apps'
p30
F0.003875968992248062
sS'It\xe2\x80\x99s'
p31
F0.003875968992248062
sS'New'
p32
F0.015503875968992248
sS'More'
p33
F0.0077519379844961239
sS'That'
p34
F0.003875968992248062
sS'Job'
p35
F0.003875968992248062
sS'Obsessing'
p36
F0.003875968992248062
sS'Nothing'
p37
F0.003875968992248062
sS'And,'
p38
F0.003875968992248062
sS'This'
p39
F0.034883720930232558
sS'Each'
p40
F0.0077519379844961239
sS'My'
p41
F0.003875968992248062
sS'Hello'
p42
F0.003875968992248062
sS'Further,'
p43
F0.003875968992248062
sS'First'
p44
F0.003875968992248062
sS'Rainer'
p45
F0.003875968992248062
sS'Second,'
p46
F0.0077519379844961239
sS'Given'
p47
F0.003875968992248062
sS'Productive'
p48
F0.003875968992248062
sS'Productivity'
p49
F0.003875968992248062
sS"It's"
p50
F0.003875968992248062
sS'Increasingly,'
p51
F0.003875968992248062
sS'Team,'
p52
F0.003875968992248062
sS'"'
F0.0077519379844961239
sS'First,'
p53
F0.0077519379844961239
sS'Every'
p54
F0.0077519379844961239
sS'Device'
p55
F0.003875968992248062
sS"We'll"
p56
F0.0077519379844961239
sS'These'
p57
F0.0077519379844961239
sS'company'
p58
F0.031007751937984496
sS'Together'
p59
F0.003875968992248062
sS'Mergers'
p60
F0.003875968992248062
sS'Software'
p61
F0.003875968992248062
sS'And'
p62
F0.023255813953488372
sS'Often'
p63
F0.003875968992248062
sS'Tired'
p64
F0.003875968992248062
sS'Billions'
p65
F0.003875968992248062
sS'Culture'
p66
F0.003875968992248062
sS'Our'
p67
F0.058139534883720929
sS'On'
p68
F0.0077519379844961239
sS'Whereas'
p69
F0.003875968992248062
sS'Processes'
p70
F0.003875968992248062
sS'To'
p71
F0.015503875968992248
sS'Digital'
p72
F0.003875968992248062
sS'You'
p73
F0.0077519379844961239
sS'They'
p74
F0.023255813953488372
sS'With'
p75
F0.023255813953488372
sS'A'
F0.003875968992248062
sS'product'
p76
F0.015503875968992248
sS'I'
F0.034883720930232558
sS'Later'
p77
F0.003875968992248062
sS'device'
p78
F0.003875968992248062
sS'Making'
p79
F0.003875968992248062
sS'The'
p80
F0.03875968992248062
sS'All'
p81
F0.0077519379844961239
sS'\xe2\x80\x9d'
p82
F0.003875968992248062
sS'It'
p83
F0.011627906976744186
sS'As'
p84
F0.023255813953488372
sS'At'
p85
F0.0077519379844961239
sS'In'
p86
F0.050387596899224806
sS'Beyond'
p87
F0.003875968992248062
sS'Cloud'
p88
F0.003875968992248062
ssS'"dual'
p89
(dp90
S'user"'
p91
F1
ssS'all'
p92
(dp93
S'industries'
p94
F0.045454545454545456
sS'be'
p95
F0.045454545454545456
sS'sizes'
p96
F0.045454545454545456
sS'of'
p97
F0.40909090909090912
sS'screen'
p98
F0.045454545454545456
sS'markets'
p99
F0.045454545454545456
sS'individuals'
p100
F0.045454545454545456
sS'understand'
p101
F0.045454545454545456
sS'build'
p102
F0.045454545454545456
sS'corners'
p103
F0.045454545454545456
sS'device'
p104
F0.045454545454545456
sS'our'
p105
F0.045454545454545456
sS'with'
p106
F0.045454545454545456
sS'employees'
p107
F0.045454545454545456
ssS'modernizing'
p108
(dp109
S'our'
p110
F1
ssS'consider'
p111
(dp112
S'the'
p113
F1
ssS'remarkable'
p114
(dp115
S'changes'
p116
F1
ssS'HIV,'
p117
(dp118
S'and'
p119
F1
ssS'sales'
p120
(dp121
S'and'
p122
F0.5
sS'markets'
p123
F0.5
ssS'graphics'
p124
(dp125
S'and'
p126
F1
ssS'I\xe2\x80\x99ll'
p127
(dp128
S'share'
p129
F1
ssS'focus'
p130
(dp131
S''
F0.058823529411764705
sS'on'
p132
F0.6470588235294118
sS'and'
p133
F0.11764705882352941
sS'is'
p134
F0.058823529411764705
sS'\xe2\x80\x93'
p135
F0.058823529411764705
sS'our'
p136
F0.058823529411764705
ssS'sessions'
p137
(dp138
S'and'
p139
F1
ssS'month'
p140
(dp141
S'of'
p142
F1
ssS'founded'
p143
(dp144
S'on'
p145
F1
ssS'thoughtful'
p146
(dp147
S'and'
p148
F1
ssS'during'
p149
(dp150
S'our'
p151
F1
ssS'go'
p152
(dp153
S'after'
p154
F0.5
sS'through'
p155
F0.5
ssS'contributions'
p156
(dp157
S'this'
p158
F0.5
sS'to'
p159
F0.5
ssg14
(dp160
S'I'
F0.33333333333333331
sS'and'
p161
F0.33333333333333331
sg127
F0.33333333333333331
ssS'layers'
p162
(dp163
S'of'
p164
F1
ssS'looking'
p165
(dp166
S'to'
p167
F1
ssS'biggest'
p168
(dp169
S'digital'
p170
F1
ssS'ecosystems'
p171
(dp172
S''
F0.5
sS'so'
p173
F0.5
ssS'quickly,'
p174
(dp175
S'with'
p176
F1
ssS'important,'
p177
(dp178
S'we'
p179
F1
ssS'simplify'
p180
(dp181
S'and'
p182
F0.33333333333333331
sS'their'
p183
F0.33333333333333331
sS'the'
p184
F0.33333333333333331
ssS'opportunities'
p185
(dp186
S''
F0.25
sS'to'
p187
F0.5
sS'for'
p188
F0.25
ssS'to'
p189
(dp190
S'all'
p191
F0.005681818181818182
sS'help'
p192
F0.011363636363636364
sS'move'
p193
F0.005681818181818182
sS'focus'
p194
F0.011363636363636364
sS'bring'
p195
F0.011363636363636364
sg152
F0.005681818181818182
sS'increase'
p196
F0.005681818181818182
sS'group'
p197
F0.005681818181818182
sS'thank'
p198
F0.005681818181818182
sS'Company'
p199
F0.005681818181818182
sS'combine'
p200
F0.005681818181818182
sS'integrate'
p201
F0.005681818181818182
sS'include'
p202
F0.011363636363636364
sS'profitably'
p203
F0.005681818181818182
sS'take'
p204
F0.017045454545454544
sS'do'
p205
F0.039772727272727272
sS'customers'
p206
F0.005681818181818182
sS'get'
p207
F0.011363636363636364
sS'evaluate'
p208
F0.005681818181818182
sS'express'
p209
F0.005681818181818182
sS'securely'
p210
F0.005681818181818182
sS'leave'
p211
F0.005681818181818182
sS'continue'
p212
F0.005681818181818182
sS'each'
p213
F0.005681818181818182
sS'become'
p214
F0.005681818181818182
sS'reinvent'
p215
F0.005681818181818182
sS'consolidate'
p216
F0.005681818181818182
sS'determine'
p217
F0.005681818181818182
sS'reduce'
p218
F0.005681818181818182
sS'expect'
p219
F0.005681818181818182
sS'further'
p220
F0.005681818181818182
sS'showcase'
p221
F0.005681818181818182
sS'flatten'
p222
F0.005681818181818182
sS'realign'
p223
F0.005681818181818182
sS'market'
p224
F0.005681818181818182
sS'thrive'
p225
F0.011363636363636364
sS'be'
p226
F0.034090909090909088
sS'run'
p227
F0.011363636363636364
sS'18,000'
p228
F0.005681818181818182
sS'empower'
p229
F0.022727272727272728
sS'deliver'
p230
F0.034090909090909088
sS'change'
p231
F0.011363636363636364
sS'advance'
p232
F0.005681818181818182
sS'shift'
p233
F0.005681818181818182
sS'ramp'
p234
F0.005681818181818182
sS'massive'
p235
F0.005681818181818182
sS'stimulate'
p236
F0.005681818181818182
sS'Company\xe2\x80\x99s'
p237
F0.011363636363636364
sS'feel'
p238
F0.005681818181818182
sS'manage'
p239
F0.005681818181818182
sS'TVs'
p240
F0.005681818181818182
sS'synthesize'
p241
F0.005681818181818182
sS'maximize'
p242
F0.005681818181818182
sS'select'
p243
F0.005681818181818182
sS'use'
p244
F0.005681818181818182
sS'device,'
p245
F0.005681818181818182
sS'create'
p246
F0.011363636363636364
sS'support'
p247
F0.005681818181818182
sS'transform'
p248
F0.017045454545454544
sS'start'
p249
F0.011363636363636364
sS'define'
p250
F0.005681818181818182
sS'a'
F0.017045454545454544
sS'life'
p251
F0.011363636363636364
sS'enable'
p252
F0.005681818181818182
sS'invite'
p253
F0.005681818181818182
sS'offer'
p254
F0.005681818181818182
sS'company'
p255
F0.005681818181818182
sS'innovate'
p256
F0.017045454545454544
sS'harmonize'
p257
F0.005681818181818182
sS'account'
p258
F0.005681818181818182
sS'roles'
p259
F0.005681818181818182
sS'this'
p260
F0.011363636363636364
sS'align'
p261
F0.005681818181818182
sS'right-size'
p262
F0.005681818181818182
sS'invest'
p263
F0.005681818181818182
sS'embody'
p264
F0.005681818181818182
sS'making'
p265
F0.011363636363636364
sS'my'
p266
F0.011363636363636364
sS'accelerate'
p267
F0.017045454545454544
sS'and'
p268
F0.005681818181818182
sS'partition'
p269
F0.005681818181818182
sS'recognize'
p270
F0.005681818181818182
sS'share'
p271
F0.005681818181818182
sS'have'
p272
F0.028409090909090908
sS'our'
p273
F0.005681818181818182
sS'hone'
p274
F0.005681818181818182
sS'information'
p275
F0.005681818181818182
sS'Product'
p276
F0.005681818181818182
sS'develop'
p277
F0.005681818181818182
sS'provide'
p278
F0.005681818181818182
sS'make'
p279
F0.039772727272727272
sS'note'
p280
F0.005681818181818182
sS'build'
p281
F0.017045454545454544
sS'which'
p282
F0.005681818181818182
sS'enrich'
p283
F0.005681818181818182
sS'test'
p284
F0.005681818181818182
sS'you'
p285
F0.011363636363636364
sS'intelligent'
p286
F0.005681818181818182
sS'sell'
p287
F0.005681818181818182
sg180
F0.005681818181818182
sS'plan'
p288
F0.005681818181818182
sS'grow'
p289
F0.011363636363636364
sS'building'
p290
F0.005681818181818182
sS'light'
p291
F0.005681818181818182
sS'vigorously'
p292
F0.011363636363636364
sS'drive'
p293
F0.017045454545454544
sS'solve'
p294
F0.005681818181818182
sS'the'
p295
F0.045454545454545456
ssS'"devices'
p296
(dp297
S'and'
p298
F1
ssS'changes,'
p299
(dp300
S'as'
p301
F1
ssS'must'
p302
(dp303
S'be'
p304
F0.15384615384615385
sS'all'
p305
F0.076923076923076927
sS'reflect'
p306
F0.076923076923076927
sS'add'
p307
F0.076923076923076927
sS'concentrate'
p308
F0.076923076923076927
sS'build'
p309
F0.076923076923076927
sS'have'
p310
F0.15384615384615385
sS'each'
p311
F0.076923076923076927
sS'ask'
p312
F0.076923076923076927
sS'rediscover'
p313
F0.076923076923076927
sS'find'
p314
F0.076923076923076927
ssg98
(dp315
S'sizes'
p316
F1
ssS'resources'
p317
(dp318
S'that'
p319
F1
ssS'customer'
p320
(dp321
S'usage'
p322
F0.33333333333333331
sS'and'
p323
F0.33333333333333331
sS'can'
p324
F0.33333333333333331
ssS'collaborate'
p325
(dp326
S'more'
p327
F1
ssS'expression,'
p328
(dp329
S'collaboration,'
p330
F1
ssS'advantage'
p331
(dp332
S'of'
p333
F1
ssS'very'
p334
(dp335
S'lowest'
p336
F0.25
sS'few'
p337
F0.25
sS'best'
p338
F0.25
sS'difficult'
p339
F0.25
ssS'could'
p340
(dp341
S'I'
F1
ssS'continues'
p342
(dp343
S'with'
p344
F1
ssS'differently'
p345
(dp346
S''
F1
ssS'engineered'
p347
(dp348
S'so'
p349
F1
ssS'results'
p350
(dp351
S'of'
p352
F0.5
sS'for'
p353
F0.5
ssS'result,'
p354
(dp355
S'people'
p356
F1
ssg21
(dp357
S'like'
p358
F1
ssS'putting'
p359
(dp360
S'a'
F0.5
sS'them'
p361
F0.5
ssS'difficult'
p362
(dp363
S'implications'
p364
F0.25
sS'as'
p365
F0.25
sS'steps'
p366
F0.25
sS'for'
p367
F0.25
ssS'affect'
p368
(dp369
S'both'
p370
F1
ssg22
(dp371
g165
F0.66666666666666663
sS'proud'
p372
F0.33333333333333331
ssS'today,'
p373
(dp374
S'this'
p375
F0.5
sS'including'
p376
F0.5
ssS'fan'
p377
(dp378
S'base'
p379
F1
ssS'vast'
p380
(dp381
S'majority'
p382
F0.5
sS'network'
p383
F0.5
ssS'entire'
p384
(dp385
S'organizations'
p386
F0.5
sS'product'
p387
F0.25
sS'city'
p388
F0.25
ssS"we'll"
p389
(dp390
S'announce'
p391
F0.33333333333333331
sS'develop'
p392
F0.33333333333333331
sS'come'
p393
F0.33333333333333331
ssS'magic'
p394
(dp395
S'of'
p396
F1
ssS'immediately'
p397
(dp398
S'while'
p399
F1
ssS'level'
p400
(dp401
S'services'
p402
F1
ssS'did'
p403
(dp404
S'with'
p405
F1
ssS'companies'
p406
(dp407
S'secure'
p408
F1
ssS'relentlessly'
p409
(dp410
S'focus'
p411
F1
ssS'try'
p412
(dp413
S'and'
p414
F1
ssS'hyper-scale'
p415
(dp416
S''
F1
ssS'world-class'
p417
(dp418
S'productivity,'
p419
F1
ssS'announced'
p420
(dp421
S'the'
p422
F1
ssS'team'
p423
(dp424
S'and'
p425
F0.071428571428571425
sS''
F0.14285714285714285
sS'transferring'
p426
F0.071428571428571425
sS'creating'
p427
F0.071428571428571425
sS'could'
p428
F0.071428571428571425
sg342
F0.071428571428571425
sS'or'
p429
F0.071428571428571425
sS'will'
p430
F0.071428571428571425
sS'members'
p431
F0.14285714285714285
sS'across'
p432
F0.071428571428571425
sS'structure'
p433
F0.071428571428571425
sS'must'
p434
F0.071428571428571425
ssS'reinvent'
p435
(dp436
S'productivity'
p437
F1
ssS'clothes'
p438
(dp439
S'for'
p440
F1
ssS'us,'
p441
(dp442
S'long'
p443
F0.5
sS'in'
p444
F0.5
ssS'leaders'
p445
(dp446
S'across'
p447
F1
ssS'traditions'
p448
(dp449
S'will'
p450
F1
ssS'core'
p451
(dp452
S''
F0.33333333333333331
sS'strategy'
p453
F0.16666666666666666
sg130
F0.33333333333333331
sg124
F0.16666666666666666
ssS'other,'
p454
(dp455
S'more'
p456
F1
ssS'phones'
p457
(dp458
S'within'
p459
F0.75
sS'business'
p460
F0.25
ssS'consistent'
p461
(dp462
S'user'
p463
F1
ssS'measurable'
p464
(dp465
S'outcomes'
p466
F1
ssS'segments,'
p467
(dp468
S'we'
p469
F0.5
sS'which'
p470
F0.5
ssS'past'
p471
(dp472
S'few'
p473
F0.33333333333333331
sS'quarter'
p474
F0.33333333333333331
sS'year'
p475
F0.33333333333333331
ssS'strategy,'
p476
(dp477
S'we'
p478
F1
ssS'designs'
p479
(dp480
S'and'
p481
F0.5
sS'to'
p482
F0.5
ssS'value'
p483
(dp484
S''
F0.33333333333333331
sS'of'
p485
F0.16666666666666666
sS'to'
p486
F0.16666666666666666
sS'for'
p487
F0.16666666666666666
sS'propositions'
p488
F0.16666666666666666
ssS'trends,'
p489
(dp490
S'which'
p491
F1
ssg220
(dp492
S'customize'
p493
F0.5
sS'specifics'
p494
F0.5
ssS'ourselves,'
p495
(dp496
S'what'
p497
F1
ssS'estimated'
p498
(dp499
S'reduction'
p500
F1
ssS'investment'
p501
(dp502
S'by'
p503
F1
ssS'machines'
p504
(dp505
S''
F1
ssS'even'
p506
(dp507
S'as'
p508
F0.33333333333333331
sS'more'
p509
F0.66666666666666663
ssS'what'
p510
(dp511
S'we'
p512
F0.2857142857142857
sS'is'
p513
F0.14285714285714285
sS'idea'
p514
F0.14285714285714285
sS'to'
p515
F0.14285714285714285
sS'only'
p516
F0.14285714285714285
sS'our'
p517
F0.14285714285714285
ssS'power'
p518
(dp519
S'all'
p520
F0.14285714285714285
sS'modern'
p521
F0.14285714285714285
sS'will'
p522
F0.14285714285714285
sS'user'
p523
F0.14285714285714285
sS'the'
p524
F0.14285714285714285
sS'was'
p525
F0.14285714285714285
sS'more'
p526
F0.14285714285714285
ssg221
(dp527
S'our'
p528
F1
ssS'giving'
p529
(dp530
S'a'
F1
ssS'PCs'
p531
(dp532
S'\xe2\x80\x93'
p533
F1
ssS'product,'
p534
(dp535
S'device'
p536
F0.20000000000000001
sS'speech'
p537
F0.20000000000000001
sS'iOS'
p538
F0.20000000000000001
sS'for'
p539
F0.20000000000000001
sS'cloud'
p540
F0.20000000000000001
ssS'near'
p541
(dp542
S'term,'
p543
F1
ssg13
(dp544
S'company,'
p545
F1
ssS'current'
p546
(dp547
S'momentum'
p548
F1
ssS'Apps,'
p549
(dp550
S'to'
p551
F1
ssS'makes'
p552
(dp553
S'us'
p554
F1
ssS'goes'
p555
(dp556
S'well'
p557
F1
ssS'flowing'
p558
(dp559
S'from'
p560
F1
ssS'new'
p561
(dp562
S'customers'
p563
F0.047619047619047616
sS'interaction'
p564
F0.047619047619047616
sS'products'
p565
F0.047619047619047616
sS'ways'
p566
F0.047619047619047616
sS'approach'
p567
F0.047619047619047616
sS'areas'
p568
F0.047619047619047616
sS'ideas'
p569
F0.047619047619047616
sS'investments'
p570
F0.047619047619047616
sS'cloud-powered'
p571
F0.047619047619047616
sS'strategy'
p572
F0.047619047619047616
sS'role'
p573
F0.047619047619047616
sS'categories'
p574
F0.095238095238095233
sS'Enterprise'
p575
F0.047619047619047616
sS'input/output'
p576
F0.047619047619047616
sS'skill'
p577
F0.047619047619047616
sS'training,'
p578
F0.047619047619047616
sS'projects'
p579
F0.047619047619047616
sS'or'
p580
F0.047619047619047616
sS'world,'
p581
F0.047619047619047616
sS'insights'
p582
F0.047619047619047616
ssS'increasing'
p583
(dp584
S'the'
p585
F1
ssS'ever'
p586
(dp587
S'done'
p588
F1
ssS'public'
p589
(dp590
S'earnings'
p591
F0.5
sS'cloud'
p592
F0.5
ssS'budgets'
p593
(dp594
S''
F1
ssS'Nietzsche'
p595
(dp596
S'and'
p597
F1
ssS'supporting'
p598
(dp599
S'technologies'
p600
F1
ssS'evolving'
p601
(dp602
S'our'
p603
F1
ssS'predicting'
p604
(dp605
S'and'
p606
F1
ssS'led'
p607
(dp608
S'by'
p609
F1
ssS'intelligent,'
p610
(dp611
S'personal'
p612
F0.5
sS'open'
p613
F0.5
ssS'whose'
p614
(dp615
S'jobs'
p616
F1
ssg228
(dp617
S'jobs'
p618
F1
ssS'empower'
p619
(dp620
S'all'
p621
F0.20000000000000001
sS'every'
p622
F0.80000000000000004
ssS'pushing'
p623
(dp624
S'more'
p625
F1
ssS'giant'
p626
(dp627
S'82'
p628
F1
ssg292
(dp629
S'innovate'
p630
F1
ssS'nimble'
p631
(dp632
S'in'
p633
F1
ssS'focused'
p634
(dp635
S'and'
p636
F0.33333333333333331
sS'on'
p637
F0.66666666666666663
ssS'orthodoxy'
p638
(dp639
S'should'
p640
F1
ssS'groups'
p641
(dp642
S'and'
p643
F1
ssS'address'
p644
(dp645
S'the'
p646
F1
ssS'strong'
p647
(dp648
S'focus'
p649
F1
ssS'reality,'
p650
(dp651
S'it'
p652
F1
ssS'transformation'
p653
(dp654
S'is'
p655
F1
ssS'change'
p656
(dp657
S'and'
p658
F0.083333333333333329
sS''
F0.25
sS'for'
p659
F0.083333333333333329
sS'means'
p660
F0.083333333333333329
sS'starts'
p661
F0.083333333333333329
sS'is'
p662
F0.083333333333333329
sS'are'
p663
F0.083333333333333329
sS'the'
p664
F0.25
ssS'Internet-connected'
p665
(dp666
S'devices'
p667
F1
ssS'his'
p668
(dp669
S'recent'
p670
F1
ssS'search'
p671
(dp672
S'and'
p673
F1
ssS'voice'
p674
(dp675
S'to'
p676
F1
ssS'ahead'
p677
(dp678
S''
F0.5
sS'from'
p679
F0.5
ssS'transition'
p680
(dp681
S'of'
p682
F0.5
sS'help'
p683
F0.5
ssS'shift'
p684
(dp685
g397
F0.33333333333333331
sS'the'
p686
F0.33333333333333331
sS'select'
p687
F0.33333333333333331
ssS'employees'
p688
(dp689
g614
F0.25
sS'over'
p690
F0.25
sS'use,'
p691
F0.25
sS'impacted'
p692
F0.25
ssS'affordable'
p693
(dp694
S'smartphone'
p695
F1
ssS'host'
p696
(dp697
S'information'
p698
F1
ssS'experience'
p699
(dp700
S'will'
p701
F0.25
sS'company'
p702
F0.25
sS'the'
p703
F0.25
sS'for'
p704
F0.25
ssS"person's"
p705
(dp706
S'privacy'
p707
F1
ssS'amount'
p708
(dp709
S'of'
p710
F1
ssS'products'
p711
(dp712
S''
F0.27272727272727271
sS'and'
p713
F0.090909090909090912
sS'offering'
p714
F0.090909090909090912
sS'to'
p715
F0.18181818181818182
sS'running'
p716
F0.090909090909090912
sS'are'
p717
F0.090909090909090912
sS'in'
p718
F0.18181818181818182
ssS'targeting'
p719
(dp720
S'the'
p721
F1
ssS'social'
p722
(dp723
S'networks'
p724
F1
ssS'action'
p725
(dp726
S''
F1
ssS'painting,'
p727
(dp728
S'writing'
p729
F1
ssS'earlier'
p730
(dp731
S'this'
p732
F1
ssg313
(dp733
S'our'
p734
F1
ssS'segments'
p735
(dp736
S'of'
p737
F1
ssS'emerge'
p738
(dp739
S'that'
p740
F1
ssg545
(dp741
S'I'
F0.33333333333333331
sS'and'
p742
F0.33333333333333331
sS'we'
p743
F0.33333333333333331
ssS'love'
p744
(dp745
S''
F0.5
sg373
F0.5
ssS'secure'
p746
(dp747
S''
F0.33333333333333331
sS'platforms'
p748
F0.33333333333333331
sS'the'
p749
F0.33333333333333331
ssS'family'
p750
(dp751
S'to'
p752
F0.33333333333333331
sS'across'
p753
F0.33333333333333331
sS'vacation'
p754
F0.33333333333333331
ssg50
(dp755
S'energizing'
p756
F1
ssS'app'
p757
(dp758
S'on'
p759
F1
ssg239
(dp760
S'and'
p761
F1
ssS'questioned'
p762
(dp763
S''
F1
ssS'workers'
p764
(dp765
S''
F1
ssS'private'
p766
(dp767
S'and'
p768
F1
ssg466
(dp769
S''
F0.5
sS'for'
p770
F0.5
ssS'screens'
p771
(dp772
S'and'
p773
F0.5
sS'of'
p774
F0.5
ssS'ask'
p775
(dp776
g495
F0.33333333333333331
sS'any'
p777
F0.33333333333333331
sS'questions'
p778
F0.33333333333333331
ssg494
(dp779
S'on'
p780
F1
ssS'implemented'
p781
(dp782
g730
F1
ssS'operate'
p783
(dp784
S'in'
p785
F1
ssS'productive,'
p786
(dp787
S'impactful'
p788
F1
ssS'market,'
p789
(dp790
S'with'
p791
F1
ssS'forefront'
p792
(dp793
S'of'
p794
F1
ssS'total'
p795
(dp796
S'percentage'
p797
F1
ssS'tools'
p798
(dp799
S'to'
p800
F0.33333333333333331
sS'\xe2\x80\x93'
p801
F0.33333333333333331
sS'people'
p802
F0.33333333333333331
ssS'cloud'
p803
(dp804
S'and'
p805
F0.066666666666666666
sS'infrastructure,'
p806
F0.066666666666666666
sS'enhancements'
p807
F0.066666666666666666
sS'into'
p808
F0.066666666666666666
sS'service-based'
p809
F0.066666666666666666
sS'will'
p810
F0.066666666666666666
sS'platform'
p811
F0.066666666666666666
sS'vendors'
p812
F0.066666666666666666
sS'services'
p813
F0.13333333333333333
sS'OS'
p814
F0.26666666666666666
sS'cloud'
p815
F0.066666666666666666
ssS'experimentation'
p816
(dp817
S''
F1
ssS'Core'
p818
(dp819
S''
F1
ssS'use'
p820
(dp821
S''
F0.16666666666666666
sS'technology'
p822
F0.16666666666666666
sS'it'
p823
F0.16666666666666666
sS'our'
p824
F0.16666666666666666
sS'the'
p825
F0.16666666666666666
sS'with'
p826
F0.16666666666666666
ssS'from'
p827
(dp828
S'a'
F0.125
sS'both'
p829
F0.083333333333333329
sS'all'
p830
F0.041666666666666664
sS'work'
p831
F0.041666666666666664
sS'phones,'
p832
F0.041666666666666664
sS'Power'
p833
F0.041666666666666664
sS'many'
p834
F0.083333333333333329
sS'Company'
p835
F0.041666666666666664
sS'each'
p836
F0.083333333333333329
sS'individual'
p837
F0.041666666666666664
sS'which'
p838
F0.041666666666666664
sS'automated'
p839
F0.041666666666666664
sS'device'
p840
F0.041666666666666664
sS'our'
p841
F0.041666666666666664
sS'the'
p842
F0.125
sS'across'
p843
F0.041666666666666664
sS'highway'
p844
F0.041666666666666664
ssS'takes'
p845
(dp846
S'to'
p847
F0.5
sS'notes,'
p848
F0.5
ssS'FY15,'
p849
(dp850
S'I'
F1
ssS'answered'
p851
(dp852
S'with'
p853
F1
ssS'single'
p854
(dp855
g168
F1
ssS"world's"
p856
(dp857
S'best'
p858
F0.5
sS'devices,'
p859
F0.5
ssS'next'
p860
(dp861
S'generation'
p862
F0.2857142857142857
sS'few'
p863
F0.14285714285714285
sS'six'
p864
F0.2857142857142857
sS'year'
p865
F0.2857142857142857
ssS'scenarios'
p866
(dp867
S'on'
p868
F0.5
sS'from'
p869
F0.5
ssg473
(dp870
S'months'
p871
F0.40000000000000002
sS'cloud'
p872
F0.20000000000000001
sS'years'
p873
F0.40000000000000002
ssS'live'
p874
(dp875
S'in'
p876
F1
ssS'explicitly'
p877
(dp878
g347
F1
ssS'call'
p879
(dp880
S'with'
p881
F1
ssg43
(dp882
S'you'
p883
F1
ssS'strike'
p884
(dp885
S'the'
p886
F1
ssS'means'
p887
(dp888
S'there'
p889
F0.16666666666666666
sS'we'
p890
F0.33333333333333331
sS'everyone'
p891
F0.16666666666666666
sS'at'
p892
F0.16666666666666666
sS'all'
p893
F0.16666666666666666
ssS'recital'
p894
(dp895
S'on'
p896
F1
ssg123
(dp897
S'where'
p898
F0.33333333333333331
sS'while'
p899
F0.33333333333333331
sS'with'
p900
F0.33333333333333331
ssS'achieving'
p901
(dp902
S'even'
p903
F1
ssS'today'
p904
(dp905
S'many'
p906
F0.25
sS'the'
p907
F0.25
sS'your'
p908
F0.25
sS'in'
p909
F0.25
ssS'more'
p910
(dp911
S'and'
p912
F0.080000000000000002
sS''
F0.12
sS'effectively'
p913
F0.02
sS'differentiation'
p914
F0.02
sg786
F0.02
sS'speed,'
p915
F0.02
sS'personal'
p916
F0.040000000000000001
sg174
F0.02
sS'lean'
p917
F0.02
sS'opportunities'
p918
F0.02
sS'accountability'
p919
F0.02
sS'emphasis'
p920
F0.02
sS'details'
p921
F0.02
sS'ambitious'
p922
F0.02
sS'complex,'
p923
F0.02
sS'new'
p924
F0.02
sS'efficiently'
p925
F0.02
sS'intelligent'
p926
F0.02
sg362
F0.02
sS'affordable'
p927
F0.02
sS'then'
p928
F0.02
sS'predictive,'
p929
F0.02
sS'easily'
p930
F0.02
sg631
F0.02
sg634
F0.02
sS'demand'
p931
F0.02
sS'with'
p932
F0.02
sS'than'
p933
F0.02
sS'contextual'
p934
F0.02
sS'on'
p935
F0.080000000000000002
sS'natural'
p936
F0.02
sS'effective'
p937
F0.02
sS'value'
p938
F0.02
sg177
F0.02
sS'agile'
p939
F0.02
sS'connected'
p940
F0.02
sS'seamlessly'
p941
F0.02
sS'changes'
p942
F0.02
ssS'recently,'
p943
(dp944
S'we'
p945
F1
ssg70
(dp946
S'will'
p947
F1
ssS'sharing'
p948
(dp949
g137
F1
ssS'door'
p950
(dp951
S'to'
p952
F1
ssS'datacenter'
p953
(dp954
S'footprint'
p955
F1
ssS'individuals,'
p956
(dp957
S'IT'
p958
F1
ssS'company'
p959
(dp960
S''
F0.14705882352941177
sS'and'
p961
F0.088235294117647065
sS'better'
p962
F0.029411764705882353
sS'builds'
p963
F0.029411764705882353
sS'for'
p964
F0.058823529411764705
sS'with'
p965
F0.029411764705882353
sS'is'
p966
F0.058823529411764705
sS'will'
p967
F0.17647058823529413
sS'to'
p968
F0.029411764705882353
sS'must'
p969
F0.029411764705882353
sS'experiences'
p970
F0.088235294117647065
sS'can'
p971
F0.029411764705882353
sS'digital'
p972
F0.029411764705882353
sS'the'
p973
F0.058823529411764705
sS'has'
p974
F0.029411764705882353
sS'was'
p975
F0.029411764705882353
sS'efforts'
p976
F0.029411764705882353
sS'defines'
p977
F0.029411764705882353
ssS'getting'
p978
(dp979
S'closer'
p980
F1
ssS'envelope'
p981
(dp982
S''
F1
ssS'Devices'
p983
(dp984
S'and'
p985
F0.66666666666666663
sS'Group,'
p986
F0.16666666666666666
sS'team,'
p987
F0.16666666666666666
ssg23
(dp988
S'every'
p989
F1
ssS'integrate'
p990
(dp991
S'them'
p992
F0.5
sS'the'
p993
F0.5
ssg564
(dp994
S'models'
p995
F1
ssS'far'
p996
(dp997
S'too'
p998
F1
ssg391
(dp999
S'our'
p1000
F1
ssS'documents,'
p1001
(dp1002
S'spreadsheets'
p1003
F1
ssS'variants,'
p1004
(dp1005
g546
F1
ssS'hold'
p1006
(dp1007
S'town'
p1008
F1
ssS'producing'
p1009
(dp1010
S'something'
p1011
F1
ssg60
(dp1012
S'and'
p1013
F1
ssS'insights'
p1014
(dp1015
S''
F0.5
sS'from'
p1016
F0.5
ssS'me'
p1017
(dp1018
S'to'
p1019
F1
ssS'organizations'
p1020
(dp1021
S'and'
p1022
F0.1111111111111111
sS'to'
p1023
F0.55555555555555558
sS'as'
p1024
F0.22222222222222221
sS'are'
p1025
F0.1111111111111111
ssS'keeping'
p1026
(dp1027
S'their'
p1028
F0.5
sS'an'
p1029
F0.5
ssg202
(dp1030
S'empowering'
p1031
F0.5
sS'new'
p1032
F0.5
ssS'human-computing'
p1033
(dp1034
S'interfaces'
p1035
F1
ssS'heard'
p1036
(dp1037
S''
F0.5
sS'from'
p1038
F0.5
ssg158
(dp1039
S'core'
p1040
F0.086956521739130432
sS'direction'
p1041
F0.043478260869565216
sS'ubiquitous'
p1042
F0.043478260869565216
sS'bold'
p1043
F0.043478260869565216
sS'would'
p1044
F0.043478260869565216
sS'mobile-first'
p1045
F0.043478260869565216
sS'process'
p1046
F0.043478260869565216
sS'shift'
p1047
F0.043478260869565216
sS'company'
p1048
F0.13043478260869565
sS'in'
p1049
F0.043478260869565216
sS'list'
p1050
F0.043478260869565216
sS'strategy'
p1051
F0.043478260869565216
sg471
F0.043478260869565216
sS'innovation'
p1052
F0.043478260869565216
sS'year'
p1053
F0.043478260869565216
sS'new'
p1054
F0.043478260869565216
sS'means'
p1055
F0.043478260869565216
sS'throughout'
p1056
F0.043478260869565216
sS'opportunity'
p1057
F0.043478260869565216
sS'end,'
p1058
F0.043478260869565216
ssS'foremost'
p1059
(dp1060
S''
F1
ssS'work'
p1061
(dp1062
S'and'
p1063
F0.53125
sS''
F0.125
sS'for'
p1064
F0.0625
sS'simplification'
p1065
F0.03125
sS'into'
p1066
F0.03125
sS'to'
p1067
F0.09375
sS'in'
p1068
F0.03125
sS'toward'
p1069
F0.03125
sS'with'
p1070
F0.03125
sS'or'
p1071
F0.03125
ssS'soul'
p1072
(dp1073
S'\xe2\x80\x93'
p1074
F1
ssS'there,'
p1075
(dp1076
S''
F1
ssS'values'
p1077
(dp1078
S'that'
p1079
F1
ssg971
(dp1080
S'find,'
p1081
F0.066666666666666666
sS'power'
p1082
F0.066666666666666666
sS'I'
F0.20000000000000001
sS'join,'
p1083
F0.066666666666666666
sS'travel'
p1084
F0.066666666666666666
sS'contribute'
p1085
F0.066666666666666666
sS'add'
p1086
F0.066666666666666666
sS'expect'
p1087
F0.13333333333333333
sS'have'
p1088
F0.13333333333333333
sS'more'
p1089
F0.066666666666666666
sS'once'
p1090
F0.066666666666666666
ssg262
(dp1091
S'our'
p1092
F1
ssS'learn'
p1093
(dp1094
S''
F0.5
sg827
F0.5
ssS'growing'
p1095
(dp1096
g735
F0.33333333333333331
sS'sea'
p1097
F0.33333333333333331
sS'online'
p1098
F0.33333333333333331
ssg67
(dp1099
g818
F0.058823529411764705
sS'product'
p1100
F0.058823529411764705
sS'Worldview'
p1101
F0.058823529411764705
sS'ambitions'
p1102
F0.058823529411764705
sS'customers'
p1103
F0.058823529411764705
sS'priorities'
p1104
F0.058823529411764705
sS'workforce'
p1105
F0.058823529411764705
sS'Culture'
p1106
F0.058823529411764705
sS'passion'
p1107
F0.058823529411764705
sS'fundamental'
p1108
F0.058823529411764705
sS'device'
p1109
F0.058823529411764705
sS'phone'
p1110
F0.058823529411764705
sS'cloud'
p1111
F0.17647058823529413
sS'first-party'
p1112
F0.11764705882352941
ssS'my'
p1113
(dp1114
S'product'
p1115
F0.125
sS'own'
p1116
F0.125
sS'monthly'
p1117
F0.125
sS'question'
p1118
F0.125
sS"daughter's"
p1119
F0.125
sg561
F0.125
sS'email'
p1120
F0.125
sg438
F0.125
ssS'experiences,'
p1121
(dp1122
S'and'
p1123
F0.40000000000000002
sS'while'
p1124
F0.40000000000000002
sS'we'
p1125
F0.20000000000000001
ssS'spent,'
p1126
(dp1127
S'in'
p1128
F1
ssS'control'
p1129
(dp1130
S''
F0.33333333333333331
sS'of'
p1131
F0.66666666666666663
ssS'data-driven,'
p1132
(dp1133
S'speed-oriented'
p1134
F1
ssS'everyone'
p1135
(dp1136
S''
F0.33333333333333331
sS'other'
p1137
F0.33333333333333331
sS'can'
p1138
F0.33333333333333331
ssS'reducing'
p1139
(dp1140
S'the'
p1141
F1
ssS'challenging'
p1142
(dp1143
S''
F1
ssg1101
(dp1144
S''
F1
ssg17
(dp1145
S'will'
p1146
F1
ssS'process'
p1147
(dp1148
S'and'
p1149
F0.40000000000000002
sS''
F0.20000000000000001
sS'tools'
p1150
F0.20000000000000001
sS'in'
p1151
F0.20000000000000001
ssS'eliminating'
p1152
(dp1153
S'roles'
p1154
F1
ssS'preserving'
p1155
(dp1156
S'the'
p1157
F1
ssS'share'
p1158
(dp1159
S'further'
p1160
F0.16666666666666666
sS'some'
p1161
F0.16666666666666666
sS'more'
p1162
F0.66666666666666663
ssS'hardware,'
p1163
(dp1164
S'PPI/meetings'
p1165
F1
ssS'effectively'
p1166
(dp1167
S''
F1
ssS'July,'
p1168
(dp1169
S'the'
p1170
F1
ssg1011
(dp1171
S'to'
p1172
F1
ssS'want'
p1173
(dp1174
g189
F1
ssg72
(dp1175
S'Work'
p1176
F1
ssS'spanning'
p1177
(dp1178
g1061
F1
ssS'times'
p1179
(dp1180
S"we'll"
p1181
F1
ssS'occur'
p1182
(dp1183
S''
F1
ssS'information'
p1184
(dp1185
S'and'
p1186
F0.2857142857142857
sS'we'
p1187
F0.14285714285714285
sg948
F0.14285714285714285
sS'from'
p1188
F0.14285714285714285
sS'as'
p1189
F0.14285714285714285
sS'can'
p1190
F0.14285714285714285
ssS'needs'
p1191
(dp1192
S''
F0.25
sS'of'
p1193
F0.5
sS'across'
p1194
F0.25
ssS'end'
p1195
(dp1196
S''
F0.5
sS'unto'
p1197
F0.5
ssS'goal'
p1198
(dp1199
S'with'
p1200
F1
ssS'provide'
p1201
(dp1202
S'as'
p1203
F0.33333333333333331
sS'third-party'
p1204
F0.33333333333333331
sS'more'
p1205
F0.33333333333333331
ssS'management,'
p1206
(dp1207
S'both'
p1208
F0.5
sS'advanced'
p1209
F0.5
ssg1084
(dp1210
S'more'
p1211
F1
ssS'get'
p1212
(dp1213
S'things'
p1214
F0.33333333333333331
sS'stuff'
p1215
F0.33333333333333331
sS'from'
p1216
F0.16666666666666666
sS'involved'
p1217
F0.16666666666666666
ssS'poetry'
p1218
(dp1219
S'and'
p1220
F1
ssg809
(dp1221
S'apps'
p1222
F1
ssS'fortunate'
p1223
(dp1224
S'to'
p1225
F1
ssS'1'
(dp1226
S'racing'
p1227
F1
ssS'how'
p1228
(dp1229
S'we'
p1230
F0.5
sS'we\xe2\x80\x99re'
p1231
F0.25
sS'they'
p1232
F0.25
ssS'responsibilities'
p1233
(dp1234
S'will'
p1235
F1
ssS'line,'
p1236
(dp1237
S'we'
p1238
F1
ssS'future,'
p1239
(dp1240
S'it'
p1241
F1
ssS'earnings'
p1242
(dp1243
S'call,'
p1244
F0.5
sg350
F0.5
ssS'"'
(dp1245
S'Even'
p1246
F0.5
sS''
F0.5
ssS'if'
p1247
(dp1248
S'you'
p1249
F0.5
sS'my'
p1250
F0.5
ssg286
(dp1251
S'as'
p1252
F0.5
sS'business'
p1253
F0.5
ssS'Q&A'
p1254
(dp1255
S''
F0.5
sS'event'
p1256
F0.5
ssS'community'
p1257
(dp1258
S'and'
p1259
F1
ssS'gaming'
p1260
(dp1261
S''
F0.5
sS'efforts'
p1262
F0.5
ssg1115
(dp1263
S''
F0.071428571428571425
sg479
F0.071428571428571425
sS'or'
p1264
F0.071428571428571425
sS'Applications'
p1265
F0.071428571428571425
sS'ecosystem'
p1266
F0.071428571428571425
sS'is'
p1267
F0.071428571428571425
sS'Server'
p1268
F0.071428571428571425
sS'will'
p1269
F0.21428571428571427
sS'Phone'
p1270
F0.071428571428571425
sS'Phone,'
p1271
F0.071428571428571425
sS'device'
p1272
F0.071428571428571425
sS'Pro'
p1273
F0.071428571428571425
ssg687
(dp1274
S'Company'
p1275
F0.25
sS'future'
p1276
F0.5
sS'the'
p1277
F0.25
ssS'ubiquitous'
p1278
(dp1279
S'and'
p1280
F0.5
sS''
F0.5
ssS'description'
p1281
(dp1282
S'was'
p1283
F1
ssS'huge'
p1284
(dp1285
S'opportunity'
p1286
F1
ssS'overall'
p1287
(dp1288
S'capability'
p1289
F0.25
sS'strategy'
p1290
F0.25
sS'workforce'
p1291
F0.25
sS'result'
p1292
F0.25
ssS'Experiences:'
p1293
(dp1294
S'We'
p1295
F1
ssS'Product'
p1296
(dp1297
S''
F0.090909090909090912
sS'application'
p1298
F0.090909090909090912
sg549
F0.090909090909090912
sS'Universal'
p1299
F0.090909090909090912
sS'team,'
p1300
F0.090909090909090912
sS'Phone'
p1301
F0.36363636363636365
sS'team'
p1302
F0.090909090909090912
sS'with'
p1303
F0.090909090909090912
ssS'demanding'
p1304
(dp1305
S'new'
p1306
F1
ssg306
(dp1307
S'Company\xe2\x80\x99s'
p1308
F1
ssS'applications'
p1309
(dp1310
S'(both'
p1311
F0.5
sS''
F0.5
ssS'boards'
p1312
(dp1313
S''
F1
ssS'//oneweek,'
p1314
(dp1315
S"we'll"
p1316
F1
ssS'designed'
p1317
(dp1318
S'as'
p1319
F1
ssS'delivering'
p1320
(dp1321
S'great'
p1322
F1
ssS'coming'
p1323
(dp1324
S'weeks'
p1325
F1
ssS'develop'
p1326
(dp1327
S'and'
p1328
F0.25
sS'new'
p1329
F0.25
sS'the'
p1330
F0.25
sS'leaner'
p1331
F0.25
ssS'truly'
p1332
(dp1333
S'believe'
p1334
F1
ssS'data'
p1335
(dp1336
S'and'
p1337
F0.29999999999999999
sS'from'
p1338
F0.10000000000000001
sS'that'
p1339
F0.10000000000000001
sS'being'
p1340
F0.10000000000000001
sS'storage'
p1341
F0.10000000000000001
sS'creates'
p1342
F0.10000000000000001
sS'to'
p1343
F0.10000000000000001
sS'between'
p1344
F0.10000000000000001
ssS'grow'
p1345
(dp1346
S''
F0.25
sS'our'
p1347
F0.5
sS'with'
p1348
F0.25
ssg925
(dp1349
S''
F1
ssS'a'
(dp1350
S'smaller'
p1351
F0.017857142857142856
sS'family'
p1352
F0.017857142857142856
sS'modern'
p1353
F0.017857142857142856
sS'product'
p1354
F0.017857142857142856
sS'competitive'
p1355
F0.017857142857142856
sS'set'
p1356
F0.017857142857142856
sS'platform'
p1357
F0.017857142857142856
sS'dual'
p1358
F0.017857142857142856
sS'Formula'
p1359
F0.017857142857142856
sg795
F0.017857142857142856
sS'quality'
p1360
F0.017857142857142856
sS'public,'
p1361
F0.017857142857142856
sg647
F0.017857142857142856
sS'productivity'
p1362
F0.017857142857142856
sS'service'
p1363
F0.017857142857142856
sS'mobile-first'
p1364
F0.035714285714285712
sS'personal'
p1365
F0.017857142857142856
sS'broad'
p1366
F0.017857142857142856
sS'complex'
p1367
F0.017857142857142856
sS'PC'
p1368
F0.017857142857142856
sg296
F0.017857142857142856
sg879
F0.017857142857142856
sg380
F0.017857142857142856
sS'rich'
p1369
F0.035714285714285712
sS'farmer'
p1370
F0.017857142857142856
sS'new'
p1371
F0.017857142857142856
sS'smartphone,'
p1372
F0.017857142857142856
sS'particular'
p1373
F0.017857142857142856
sS'dialogue'
p1374
F0.017857142857142856
sS'number'
p1375
F0.017857142857142856
sS'game'
p1376
F0.017857142857142856
sS'user'
p1377
F0.017857142857142856
sS'position'
p1378
F0.017857142857142856
sS'world'
p1379
F0.035714285714285712
sS'spark'
p1380
F0.017857142857142856
sS'unique'
p1381
F0.053571428571428568
sS'potential'
p1382
F0.017857142857142856
sS'vaccine'
p1383
F0.017857142857142856
sS'great'
p1384
F0.017857142857142856
sS'raving'
p1385
F0.017857142857142856
sS'remote'
p1386
F0.017857142857142856
sS'clear'
p1387
F0.017857142857142856
sS'variety'
p1388
F0.017857142857142856
sg354
F0.017857142857142856
sS'large'
p1389
F0.017857142857142856
sS'place'
p1390
F0.017857142857142856
sS'time'
p1391
F0.017857142857142856
sg1095
F0.035714285714285712
sS'professional'
p1392
F0.017857142857142856
sg674
F0.017857142857142856
ssS'finest'
p1393
(dp1394
S'of'
p1395
F1
ssg81
(dp1396
S'of'
p1397
F1
ssg936
(dp1398
g1033
F1
ssS'cloud,'
p1399
(dp1400
S'we'
p1401
F1
ssS'commodity'
p1402
(dp1403
S'is'
p1404
F0.5
sS'\xe2\x80\x93'
p1405
F0.5
ssS'light'
p1406
(dp1407
S'up'
p1408
F1
ssS'life'
p1409
(dp1410
S''
F0.30434782608695654
sS'and'
p1411
F0.13043478260869565
sg340
F0.043478260869565216
sS'experience'
p1412
F0.043478260869565216
sS'category,'
p1413
F0.043478260869565216
sg866
F0.043478260869565216
sS'to'
p1414
F0.043478260869565216
sS'experiences'
p1415
F0.21739130434782608
sS'experiences,'
p1416
F0.13043478260869565
ssg236
(dp1417
S'more'
p1418
F1
ssS'sensors,'
p1419
(dp1420
g771
F1
ssS'so'
p1421
(dp1422
S'that'
p1423
F0.33333333333333331
sS'anybody'
p1424
F0.1111111111111111
sS'will'
p1425
F0.1111111111111111
sS'as'
p1426
F0.1111111111111111
sS'you'
p1427
F0.1111111111111111
sS'with'
p1428
F0.1111111111111111
sS'must'
p1429
F0.1111111111111111
ssS'fundamental'
p1430
(dp1431
S'impact'
p1432
F0.33333333333333331
sS'cultural'
p1433
F0.33333333333333331
sS'focus'
p1434
F0.33333333333333331
ssS'media'
p1435
(dp1436
S'services,'
p1437
F1
ssS'every'
p1438
(dp1439
S'desk'
p1440
F0.083333333333333329
sS'person'
p1441
F0.16666666666666666
sS'individual'
p1442
F0.33333333333333331
sS'user'
p1443
F0.083333333333333329
sS'organization'
p1444
F0.16666666666666666
sS'home'
p1445
F0.083333333333333329
sS'team'
p1446
F0.083333333333333329
ssg87
(dp1447
S'back-end'
p1448
F1
ssS'order'
p1449
(dp1450
S'to'
p1451
F1
ssS'gesture'
p1452
(dp1453
S'and'
p1454
F1
ssS'meeting,'
p1455
(dp1456
g671
F1
ssS'operations'
p1457
(dp1458
S'and'
p1459
F0.5
sS'to'
p1460
F0.5
ssS'GDP'
p1461
(dp1462
S'will'
p1463
F1
ssS'infant'
p1464
(dp1465
S'stages'
p1466
F1
ssg864
(dp1467
S'months'
p1468
F1
ssS'help'
p1469
(dp1470
S'them'
p1471
F0.20000000000000001
sS'in'
p1472
F0.20000000000000001
sS'build'
p1473
F0.20000000000000001
sS'people'
p1474
F0.40000000000000002
ssg6
(dp1475
g1236
F1
ssS'Group'
p1476
(dp1477
S''
F1
ssS'over'
p1478
(dp1479
g1184
F0.14285714285714285
sS'the'
p1480
F0.42857142857142855
sS'reinventing'
p1481
F0.14285714285714285
sS'our'
p1482
F0.2857142857142857
ssg193
(dp1483
S'faster,'
p1484
F0.20000000000000001
sS'from'
p1485
F0.40000000000000002
sS'around'
p1486
F0.20000000000000001
sS'faster'
p1487
F0.20000000000000001
ssg314
(dp1488
S'ways'
p1489
F1
ssS'soon'
p1490
(dp1491
S'be'
p1492
F0.5
sS'to'
p1493
F0.5
ssg873
(dp1494
S''
F0.5
sS'we'
p1495
F0.5
ssS'course'
p1496
(dp1497
S'of'
p1498
F1
ssS'difficult,'
p1499
(dp1500
S'but'
p1501
F1
ssg1116
(dp1502
S'and'
p1503
F0.5
sS'calendar'
p1504
F0.5
ssg376
(dp1505
S'enterprise'
p1506
F1
ssS'lower-cost'
p1507
(dp1508
S'devices'
p1509
F1
ssS'committed'
p1510
(dp1511
S'to'
p1512
F0.66666666666666663
sS'when'
p1513
F0.33333333333333331
ssS'mind,'
p1514
(dp1515
S'we'
p1516
F1
ssg12
(dp1517
S'and'
p1518
F1
ssS'adopt'
p1519
(dp1520
S'SaaS'
p1521
F1
ssS'roots'
p1522
(dp1523
S'of'
p1524
F1
ssS'before'
p1525
(dp1526
S'it'
p1527
F0.5
sS'us'
p1528
F0.5
ssg94
(dp1529
S''
F1
ssS'machine'
p1530
(dp1531
S'learning'
p1532
F1
ssg695
(dp1533
g467
F0.33333333333333331
sS'space'
p1534
F0.66666666666666663
ssS'derive'
p1535
(dp1536
g1014
F1
ssg197
(dp1537
S'will'
p1538
F0.5
sS'productivity'
p1539
F0.5
ssg198
(dp1540
S'you'
p1541
F1
ssg571
(dp1542
S'applications,'
p1543
F1
ssg612
(dp1544
S'and'
p1545
F0.125
sS''
F0.125
sS'computing'
p1546
F0.125
sS'assistant'
p1547
F0.125
sS'meaning'
p1548
F0.125
sS'growth'
p1549
F0.125
sS'digital'
p1550
F0.125
sg1121
F0.125
ssS'expectations'
p1551
(dp1552
S'we'
p1553
F1
ssg729
(dp1554
g1218
F1
ssS'better'
p1555
(dp1556
S''
F0.5
sS'security'
p1557
F0.5
ssS'platform'
p1558
(dp1559
S'company'
p1560
F0.59999999999999998
sS'that'
p1561
F0.20000000000000001
sS'mindset'
p1562
F0.20000000000000001
ssS'focus,'
p1563
(dp1564
S'we'
p1565
F1
ssS'continue'
p1566
(dp1567
S'building'
p1568
F0.125
sS'to'
p1569
F0.75
sS'our'
p1570
F0.125
ssg210
(dp1571
g1519
F1
ssS'Android'
p1572
(dp1573
S'devices'
p1574
F1
ssg1370
(dp1575
S'in'
p1576
F1
ssg576
(dp1577
S'methods'
p1578
F1
ssg1325
(dp1579
g445
F1
ssS'areas'
p1580
(dp1581
S''
F0.25
sS'of'
p1582
F0.25
sS'where'
p1583
F0.5
ssg581
(dp1584
S'we'
p1585
F0.5
sS'there'
p1586
F0.5
ssg928
(dp1587
S'on'
p1588
F0.5
sS'buy'
p1589
F0.5
ssg361
(dp1590
S''
F0.16666666666666666
sS'organize'
p1591
F0.16666666666666666
sg851
F0.16666666666666666
sS'at'
p1592
F0.16666666666666666
sS'in'
p1593
F0.16666666666666666
sS'with'
p1594
F0.16666666666666666
ssS'most-revered'
p1595
(dp1596
S'consumer'
p1597
F1
ssS'return'
p1598
(dp1599
S'on'
p1600
F1
ssS'greater'
p1601
(dp1602
S'accountability,'
p1603
F0.5
sS'trust'
p1604
F0.5
ssS'bolder'
p1605
(dp1606
S'and'
p1607
F1
ssS'richness'
p1608
(dp1609
S'of'
p1610
F1
ssS'Mobile'
p1611
(dp1612
S'Phones'
p1613
F1
ssg283
(dp1614
S'the'
p1615
F1
ssS'Satya'
p1616
(dp1617
S'has'
p1618
F1
ssS'friction-free'
p1619
(dp1620
S'ways'
p1621
F1
ssS'school'
p1622
(dp1623
S'and'
p1624
F1
ssg1375
(dp1625
S'of'
p1626
F1
ssS'inch'
p1627
(dp1628
S'PPI'
p1629
F1
ssS'conquer'
p1630
(dp1631
S'language'
p1632
F1
ssS'they'
p1633
(dp1634
S'will'
p1635
F0.33333333333333331
sS'deserve'
p1636
F0.33333333333333331
sS'work'
p1637
F0.33333333333333331
ssS'ambition'
p1638
(dp1639
S'and'
p1640
F1
ssS'not'
p1641
(dp1642
S'respect'
p1643
F0.25
sS'the'
p1644
F0.25
sS'to'
p1645
F0.25
sS'devices,'
p1646
F0.25
ssS'bar'
p1647
(dp1648
S'for'
p1649
F1
ssS'Senior'
p1650
(dp1651
S'Leadership'
p1652
F1
ssS'now'
p1653
(dp1654
S'need'
p1655
F0.25
sS'to'
p1656
F0.25
sS'is'
p1657
F0.25
sS'enable'
p1658
F0.25
ssg4
(dp1659
S'you'
p1660
F1
ssS'day'
p1661
(dp1662
S'I'
F0.5
sS'or'
p1663
F0.5
ssS'maintaining'
p1664
(dp1665
S'security'
p1666
F0.5
sS'business'
p1667
F0.5
ssg859
(dp1668
S'apps,'
p1669
F0.5
sS'company'
p1670
F0.25
sS'at'
p1671
F0.25
ssg930
(dp1672
S'and'
p1673
F1
ssS'term'
p1674
(dp1675
S'papers,'
p1676
F1
ssg1331
(dp1677
S'business'
p1678
F1
ssS'technology,'
p1679
(dp1680
g1304
F1
ssS'Mobility'
p1681
(dp1682
S'Suite,'
p1683
F1
ssS'notified'
p1684
(dp1685
S'over'
p1686
F1
ssg103
(dp1687
S'of'
p1688
F1
ssg1273
(dp1689
S'3'
F1
ssg1484
(dp1690
S'more'
p1691
F1
ssS'13,000'
p1692
(dp1693
S'positions,'
p1694
F1
ssS'speech,'
p1695
(dp1696
S'pen'
p1697
F1
ssS'capability'
p1698
(dp1699
S'to'
p1700
F0.5
sS'around'
p1701
F0.5
ssS'skills'
p1702
(dp1703
S'will'
p1704
F1
ssg27
(dp1705
S'we'
p1706
F1
ssg836
(dp1707
S'experienced'
p1708
F0.125
sg454
F0.125
sS'of'
p1709
F0.125
sS'member'
p1710
F0.125
sS'other'
p1711
F0.125
sS'have'
p1712
F0.125
sg705
F0.125
sS'market'
p1713
F0.125
ssS'aligns'
p1714
(dp1715
S'our'
p1716
F0.5
sS'with'
p1717
F0.5
ssS'simplified'
p1718
(dp1719
S''
F1
ssg474
(dp1720
S'and'
p1721
F1
ssg1708
(dp1722
S'a'
F1
ssg216
(dp1723
S'the'
p1724
F1
ssS'A'
(dp1725
S'few'
p1726
F1
ssg1341
(dp1727
S'and'
p1728
F1
ssS'illuminate'
p1729
(dp1730
S''
F1
ssS'individually,'
p1731
(dp1732
S'we'
p1733
F1
ssS'doing'
p1734
(dp1735
S'all'
p1736
F0.5
sS'in'
p1737
F0.5
ssg1050
(dp1738
S'that'
p1739
F1
ssS'globe'
p1740
(dp1741
S'to'
p1742
F1
ssS'reduce'
p1743
(dp1744
S'the'
p1745
F1
ssg514
(dp1746
S'can'
p1747
F1
ssS'Science'
p1748
(dp1749
S'and'
p1750
F0.5
sg317
F0.5
ssg31
(dp1751
S'important'
p1752
F1
ssS'challenges'
p1753
(dp1754
S'in'
p1755
F1
ssS'society'
p1756
(dp1757
S'expect'
p1758
F1
ssS'books'
p1759
(dp1760
S'meetings'
p1761
F1
ssg1758
(dp1762
S'these'
p1763
F0.16666666666666666
sS'to'
p1764
F0.5
sS'us'
p1765
F0.16666666666666666
sS'in'
p1766
F0.16666666666666666
ssg475
(dp1767
S''
F0.75
sS'in'
p1768
F0.25
ssg628
(dp1769
g1627
F1
ssS'our'
p1770
(dp1771
S'own'
p1772
F0.012048192771084338
sS'family'
p1773
F0.012048192771084338
sS'gaming'
p1774
F0.012048192771084338
sS'focus'
p1775
F0.012048192771084338
sS'strategic'
p1776
F0.012048192771084338
sS'culture'
p1777
F0.024096385542168676
sS'engineering'
p1778
F0.024096385542168676
sS'solutions'
p1779
F0.012048192771084338
sS'cloud'
p1780
F0.024096385542168676
sg1284
F0.012048192771084338
sS'manufacturing'
p1781
F0.012048192771084338
sS'productivity'
p1782
F0.012048192771084338
sg1198
F0.012048192771084338
sS'core,'
p1783
F0.024096385542168676
sS'ambitions'
p1784
F0.024096385542168676
sS'direction'
p1785
F0.012048192771084338
sS'ideas'
p1786
F0.012048192771084338
sg1563
F0.012048192771084338
sS'role'
p1787
F0.012048192771084338
sg1242
F0.012048192771084338
sS'innovation'
p1788
F0.012048192771084338
sS'new'
p1789
F0.012048192771084338
sg589
F0.024096385542168676
sS'disciplines'
p1790
F0.012048192771084338
sS'core'
p1791
F0.024096385542168676
sS'customers'
p1792
F0.084337349397590355
sS'vendor'
p1793
F0.012048192771084338
sS'ability'
p1794
F0.012048192771084338
sS'business'
p1795
F0.024096385542168676
sg1287
F0.024096385542168676
sS'workforce'
p1796
F0.012048192771084338
sS'sales'
p1797
F0.012048192771084338
sS'innovation,'
p1798
F0.012048192771084338
sS'phone'
p1799
F0.012048192771084338
sS'lives'
p1800
F0.012048192771084338
sS'organization'
p1801
F0.012048192771084338
sS'unique'
p1802
F0.03614457831325301
sS'efforts'
p1803
F0.024096385542168676
sS'desire'
p1804
F0.024096385542168676
sg953
F0.012048192771084338
sS'success'
p1805
F0.03614457831325301
sS'products,'
p1806
F0.012048192771084338
sS'industry'
p1807
F0.012048192771084338
sS'work'
p1808
F0.024096385542168676
sg1072
F0.012048192771084338
sS'devices'
p1809
F0.012048192771084338
sS'teams'
p1810
F0.012048192771084338
sS'solutions,'
p1811
F0.012048192771084338
sS'future'
p1812
F0.012048192771084338
sS'products'
p1813
F0.03614457831325301
sS'OEM'
p1814
F0.012048192771084338
sS'team'
p1815
F0.024096385542168676
sS'fan'
p1816
F0.012048192771084338
sS'transformation,'
p1817
F0.012048192771084338
sS'changes'
p1818
F0.012048192771084338
sS'workforce,'
p1819
F0.012048192771084338
sS'Cloud'
p1820
F0.012048192771084338
sS'first'
p1821
F0.012048192771084338
ssS'operation'
p1822
(dp1823
S'of'
p1824
F1
ssS'beyond'
p1825
(dp1826
g1001
F0.5
sS'solely'
p1827
F0.5
ssS'hires'
p1828
(dp1829
S'will'
p1830
F1
ssg1256
(dp1831
S'tomorrow'
p1832
F1
ssg33
(dp1833
g943
F0.5
sS'broadly'
p1834
F0.5
ssS'respects'
p1835
(dp1836
S'innovation'
p1837
F1
ssS'ultimately'
p1838
(dp1839
S'power'
p1840
F1
ssS'accomplish'
p1841
(dp1842
S'things'
p1843
F1
ssg383
(dp1844
S'and'
p1845
F1
ssS'driving'
p1846
(dp1847
S''
F0.5
sS'volume'
p1848
F0.5
ssS'best:'
p1849
(dp1850
S'"The'
p1851
F1
ssg1777
(dp1852
S''
F0.33333333333333331
sS'to'
p1853
F0.5
sS'change'
p1854
F0.16666666666666666
ssg1360
(dp1855
S'delivery'
p1856
F1
ssg69
(dp1857
S'the'
p1858
F1
ssg986
(dp1859
S'our'
p1860
F1
ssS'factory'
p1861
(dp1862
g764
F0.5
sS'direct'
p1863
F0.5
ssS'research'
p1864
(dp1865
S'services,'
p1866
F1
ssS'content'
p1867
(dp1868
S'and'
p1869
F1
ssg35
(dp1870
g1233
F1
ssS'flattening'
p1871
(dp1872
S'organizations'
p1873
F1
ssg1231
(dp1874
S'moving'
p1875
F1
ssg844
(dp1876
S'sensors'
p1877
F1
ssS'obsess'
p1878
(dp1879
g1478
F1
ssS'foundation'
p1880
(dp1881
S'from'
p1882
F1
ssg154
(dp1883
S'this'
p1884
F1
ssS'belief'
p1885
(dp1886
S'that'
p1887
F1
ssS'interactions'
p1888
(dp1889
S'among'
p1890
F1
ssg39
(dp1891
S'builds'
p1892
F0.1111111111111111
sS'computing'
p1893
F0.1111111111111111
sS'comprehensive'
p1894
F0.1111111111111111
sS'is'
p1895
F0.1111111111111111
sS'includes'
p1896
F0.1111111111111111
sS'will'
p1897
F0.22222222222222221
sS'team'
p1898
F0.1111111111111111
sg653
F0.1111111111111111
ssg1176
(dp1899
S'and'
p1900
F1
ssS'workforce'
p1901
(dp1902
S'and'
p1903
F0.40000000000000002
sS''
F0.20000000000000001
sS'by'
p1904
F0.20000000000000001
sS'reductions'
p1905
F0.20000000000000001
ssS'reason'
p1906
(dp1907
S'over'
p1908
F1
ssg379
(dp1909
S''
F0.5
sS'with'
p1910
F0.5
ssS'streamline'
p1911
(dp1912
S'the'
p1913
F1
ssS'members'
p1914
(dp1915
S''
F0.33333333333333331
sS'with'
p1916
F0.33333333333333331
sS'from'
p1917
F0.33333333333333331
ssS'put'
p1918
(dp1919
S'our'
p1920
F1
ssg419
(dp1921
S'collaboration'
p1922
F1
ssg1877
(dp1923
S'and'
p1924
F1
ssg232
(dp1925
S'their'
p1926
F1
ssS'training'
p1927
(dp1928
S'and'
p1929
F1
ssS'milestones'
p1930
(dp1931
S'ahead'
p1932
F1
ssS'benefits'
p1933
(dp1934
S''
F1
ssS'digitization'
p1935
(dp1936
S'of'
p1937
F1
ssg1632
(dp1938
S'barriers'
p1939
F1
ssg1806
(dp1940
S'the'
p1941
F1
ssS'September'
p1942
(dp1943
S''
F1
ssS'where'
p1944
(dp1945
S'we'
p1946
F0.375
sS'Company\xe2\x80\x99s'
p1947
F0.125
sS'computing'
p1948
F0.125
sS'it'
p1949
F0.125
sS'the'
p1950
F0.125
sS'you'
p1951
F0.125
ssS'recipes'
p1952
(dp1953
S'and'
p1954
F1
ssg848
(dp1955
g1759
F1
ssg1104
(dp1956
S'will'
p1957
F1
ssS'keep'
p1958
(dp1959
S'people,'
p1960
F0.5
sS'a'
F0.5
ssg1342
(dp1961
S'a'
F0.5
sg185
F0.5
ssg1244
(dp1962
S'I\xe2\x80\x99ll'
p1963
F1
ssg1390
(dp1964
S''
F0.25
sS'where'
p1965
F0.25
sS'for'
p1966
F0.5
ssS'massive'
p1967
(dp1968
S'growth'
p1969
F0.5
sS'opportunity'
p1970
F0.5
ssg567
(dp1971
S'and'
p1972
F0.33333333333333331
sS'based'
p1973
F0.33333333333333331
sS'for'
p1974
F0.33333333333333331
ssg1939
(dp1975
S'and'
p1976
F1
ssS'MGX'
p1977
(dp1978
S'and'
p1979
F1
ssS'driven'
p1980
(dp1981
S'by'
p1982
F1
ssS'think'
p1983
(dp1984
S'of'
p1985
F0.16666666666666666
sS'about'
p1986
F0.5
sS'that'
p1987
F0.16666666666666666
sS"it's"
p1988
F0.16666666666666666
ssS'partnerships'
p1989
(dp1990
S'will'
p1991
F1
ssg1246
(dp1992
S'more'
p1993
F1
ssS'major'
p1994
(dp1995
g1930
F1
ssg1591
(dp1996
S'and'
p1997
F1
ssg238
(dp1998
S'the'
p1999
F1
ssg1118
(dp2000
S''
F0.33333333333333331
sS'about'
p2001
F0.33333333333333331
sS'that\xe2\x80\x99s'
p2002
F0.33333333333333331
ssS'too,'
p2003
(dp2004
S'comes'
p2005
F1
ssS'accruing'
p2006
(dp2007
S'value'
p2008
F1
ssS'primary'
p2009
(dp2010
S'drivers'
p2011
F1
ssS'one'
p2012
(dp2013
S'of'
p2014
F0.2857142857142857
sS'cohesive'
p2015
F0.14285714285714285
sS'phone'
p2016
F0.14285714285714285
sS'individual'
p2017
F0.14285714285714285
sS'way'
p2018
F0.14285714285714285
sS'interconnected'
p2019
F0.14285714285714285
ssg1120
(dp2020
S'to'
p2021
F1
ssg241
(dp2022
S'the'
p2023
F1
ssg1351
(dp2024
S'team'
p2025
F1
ssg588
(dp2026
S''
F0.80000000000000004
sS'with'
p2027
F0.20000000000000001
ssS'impact,'
p2028
(dp2029
S'you'
p2030
F1
ssS'mainly'
p2031
(dp2032
g1980
F1
ssS'thoughtfully'
p2033
(dp2034
S'expand'
p2035
F1
ssS'drove'
p2036
(dp2037
S'significant'
p2038
F1
ssg613
(dp2039
S'and'
p2040
F1
ssg1832
(dp2041
S''
F1
ssS'size'
p2042
(dp2043
S'of'
p2044
F1
ssg388
(dp2045
S'running'
p2046
F1
ssS'given'
p2047
(dp2048
S'we'
p2049
F1
ssS'management'
p2050
(dp2051
S'infrastructure'
p2052
F0.5
sS'team'
p2053
F0.5
ssS'limited'
p2054
(dp2055
S'change'
p2056
F1
ssg1790
(dp2057
S'will'
p2058
F1
ssg1363
(dp2059
S'and'
p2060
F0.5
sS'with'
p2061
F0.5
ssS'privacy'
p2062
(dp2063
S''
F0.5
sg1129
F0.25
sS'choices'
p2064
F0.25
ssS'top'
p2065
(dp2066
S'down'
p2067
F1
ssg1521
(dp2068
g1309
F1
ssg1413
(dp2069
S'measured'
p2070
F1
ssS'needed'
p2071
(dp2072
S''
F1
ssS'thoughts'
p2073
(dp2074
S'on'
p2075
F1
ssg330
(dp2076
g1455
F1
ssS'developer'
p2077
(dp2078
S'ecosystem'
p2079
F0.33333333333333331
sS'productivity'
p2080
F0.33333333333333331
sS'opportunity'
p2081
F0.33333333333333331
ssg797
(dp2082
S'of'
p2083
F1
ssg670
(dp2084
S'emails'
p2085
F1
ssS'really'
p2086
(dp2087
S'in'
p2088
F1
ssg998
(dp2089
S'much'
p2090
F1
ssS'acquisitions'
p2091
(dp2092
S'will'
p2093
F1
ssS'building'
p2094
(dp2095
S''
F0.20000000000000001
sS'a'
F0.20000000000000001
sS'the'
p2096
F0.20000000000000001
sS'productivity'
p2097
F0.20000000000000001
sS'momentum'
p2098
F0.20000000000000001
ssS'phones,'
p2099
(dp2100
g531
F0.33333333333333331
sS'product,'
p2101
F0.33333333333333331
sS'tablets'
p2102
F0.33333333333333331
ssS'that'
p2103
(dp2104
g1616
F0.025000000000000001
sS'impacts'
p2105
F0.025000000000000001
sS'people'
p2106
F0.025000000000000001
sS'is'
p2107
F0.025000000000000001
sS'product'
p2108
F0.025000000000000001
sS'simply'
p2109
F0.025000000000000001
sS'are'
p2110
F0.050000000000000003
sS'have'
p2111
F0.025000000000000001
sS'in'
p2112
F0.025000000000000001
sS'our'
p2113
F0.025000000000000001
sS'moves'
p2114
F0.025000000000000001
sS'technology'
p2115
F0.025000000000000001
sS'information'
p2116
F0.025000000000000001
sS'strength'
p2117
F0.025000000000000001
sS'span'
p2118
F0.025000000000000001
sS'investing'
p2119
F0.025000000000000001
sS'their'
p2120
F0.025000000000000001
sS'showcases'
p2121
F0.025000000000000001
sS'expresses'
p2122
F0.025000000000000001
sS'you'
p2123
F0.025000000000000001
sS'complement'
p2124
F0.025000000000000001
sS'we'
p2125
F0.074999999999999997
sS'enable'
p2126
F0.050000000000000003
sS'means'
p2127
F0.025000000000000001
sg619
F0.025000000000000001
sg644
F0.025000000000000001
sS'changing'
p2128
F0.025000000000000001
sS'total,'
p2129
F0.025000000000000001
sS'runs'
p2130
F0.025000000000000001
sS'this'
p2131
F0.025000000000000001
sS'work'
p2132
F0.025000000000000001
sS'will'
p2133
F0.025000000000000001
sS'while'
p2134
F0.025000000000000001
sS'can'
p2135
F0.025000000000000001
sS'the'
p2136
F0.050000000000000003
ssS'NUI'
p2137
(dp2138
S'in'
p2139
F1
ssS'took'
p2140
(dp2141
S'on'
p2142
F1
ssg256
(dp2143
S'and'
p2144
F0.59999999999999998
sS'with'
p2145
F0.20000000000000001
sS'more'
p2146
F0.20000000000000001
ssg1863
(dp2147
S'and'
p2148
F1
ssS'slides'
p2149
(dp2150
S''
F1
ssg55
(dp2151
S'OS'
p2152
F1
ssS'part'
p2153
(dp2154
S'of'
p2155
F1
ssg575
(dp2156
g1681
F1
ssS'focusing'
p2157
(dp2158
S'our'
p2159
F1
ssS'off'
p2160
(dp2161
S'the'
p2162
F1
ssS'eliminated'
p2163
(dp2164
S'will'
p2165
F1
ssS'believe'
p2166
(dp2167
S'are'
p2168
F0.5
sS'that'
p2169
F0.5
ssS'than'
p2170
(dp2171
S'3'
F0.25
sS'them'
p2172
F0.25
sS'anything'
p2173
F0.25
sS'it'
p2174
F0.25
ssS'wide'
p2175
(dp2176
S'range'
p2177
F1
ssg937
(dp2178
S'in'
p2179
F1
ssg259
(dp2180
S'where'
p2181
F0.33333333333333331
sS'in'
p2182
F0.66666666666666663
ssS'analytics'
p2183
(dp2184
S'services,'
p2185
F1
ssS'Data'
p2186
(dp2187
S'and'
p2188
F1
ssS'Universal'
p2189
(dp2190
S'product'
p2191
F0.33333333333333331
sS'Apps'
p2192
F0.33333333333333331
sS'Product'
p2193
F0.33333333333333331
ssS'richer'
p2194
(dp2195
S'employee'
p2196
F1
ssg1811
(dp2197
g901
F1
ssS'future'
p2198
(dp2199
S''
F0.16666666666666666
sS'Company'
p2200
F0.33333333333333331
sS'enters'
p2201
F0.16666666666666666
sS'are'
p2202
F0.16666666666666666
sS'learning'
p2203
F0.16666666666666666
ssS'ranges,'
p2204
(dp2205
S'we'
p2206
F1
ssg264
(dp2207
S'the'
p2208
F1
ssS'seamlessly'
p2209
(dp2210
g990
F0.5
sS'move'
p2211
F0.5
ssS'enables'
p2212
(dp2213
S'us'
p2214
F1
ssg1827
(dp2215
g1009
F1
ssg1683
(dp2216
S'we'
p2217
F1
ssS'are'
p2218
(dp2219
S'already'
p2220
F0.029411764705882353
sg1499
F0.029411764705882353
sg1734
F0.029411764705882353
sg2031
F0.029411764705882353
sS'one'
p2221
F0.029411764705882353
sS'at'
p2222
F0.029411764705882353
sg1152
F0.029411764705882353
sS'in'
p2223
F0.029411764705882353
sS'reinvented'
p2224
F0.029411764705882353
sS'bold'
p2225
F0.029411764705882353
sS'adding'
p2226
F0.029411764705882353
sS'working'
p2227
F0.058823529411764705
sg2071
F0.029411764705882353
sS'broad'
p2228
F0.029411764705882353
sS'intended'
p2229
F0.029411764705882353
sS'empowered'
p2230
F0.029411764705882353
sg1223
F0.029411764705882353
sS'also'
p2231
F0.029411764705882353
sS'expected'
p2232
F0.029411764705882353
sS'difficult'
p2233
F0.029411764705882353
sS'creating'
p2234
F0.029411764705882353
sS'forming'
p2235
F0.029411764705882353
sS'most'
p2236
F0.029411764705882353
sS'moving'
p2237
F0.058823529411764705
sg2157
F0.029411764705882353
sS'today,'
p2238
F0.029411764705882353
sg978
F0.029411764705882353
sS'timeless'
p2239
F0.029411764705882353
sS'the'
p2240
F0.088235294117647065
sS'swimming'
p2241
F0.029411764705882353
ssS'exhibit'
p2242
(dp2243
S'ambient'
p2244
F1
ssS'halls,'
p2245
(dp2246
g696
F1
ssS'infrastructure,'
p2247
(dp2248
S'device'
p2249
F0.5
sS'our'
p2250
F0.5
ssS'enhanced'
p2251
(dp2252
g1927
F1
ssS'investors'
p2253
(dp2254
S'I'
F1
ssS'FY15'
p2255
(dp2256
S'to'
p2257
F1
ssg862
(dp2258
S'of'
p2259
F0.5
sS'teams'
p2260
F0.5
ssg521
(dp2261
g1901
F0.5
sS'business'
p2262
F0.5
ssS'mind'
p2263
(dp2264
S''
F1
ssS'locations'
p2265
(dp2266
S''
F1
ssg1424
(dp2267
S'can'
p2268
F1
ssS'already'
p2269
(dp2270
S'successful'
p2271
F0.33333333333333331
sS'planned,'
p2272
F0.33333333333333331
sg781
F0.33333333333333331
ssS'say'
p2273
(dp2274
S'it'
p2275
F0.5
sS'more'
p2276
F0.5
ssg1589
(dp2277
S'them'
p2278
F1
ssS'teams,'
p2279
(dp2280
S'this'
p2281
F1
ssS'have'
p2282
(dp2283
S'a'
F0.080000000000000002
sS'them'
p2284
F0.040000000000000001
sS'described'
p2285
F0.040000000000000001
sS'very'
p2286
F0.040000000000000001
sS'Data'
p2287
F0.040000000000000001
sS'had'
p2288
F0.040000000000000001
sS'fewer'
p2289
F0.080000000000000002
sS'an'
p2290
F0.040000000000000001
sS'also'
p2291
F0.040000000000000001
sS'"courage'
p2292
F0.040000000000000001
sS'courage'
p2293
F0.040000000000000001
sS'been'
p2294
F0.040000000000000001
sS'fundamental'
p2295
F0.040000000000000001
sS'each'
p2296
F0.040000000000000001
sS'device'
p2297
F0.040000000000000001
sS'from'
p2298
F0.040000000000000001
sS'the'
p2299
F0.20000000000000001
sS'clarity'
p2300
F0.040000000000000001
sg586
F0.040000000000000001
ssg1655
(dp2301
S'and'
p2302
F0.16666666666666666
sS'to'
p2303
F0.5
sS'for'
p2304
F0.33333333333333331
ssg692
(dp2305
S'by'
p2306
F1
ssS'their'
p2307
(dp2308
g1457
F0.052631578947368418
sS'needs'
p2309
F0.052631578947368418
sS'computing'
p2310
F0.052631578947368418
sS'personal'
p2311
F0.052631578947368418
sS'contributions'
p2312
F0.052631578947368418
sg688
F0.052631578947368418
sS'work'
p2313
F0.052631578947368418
sg406
F0.052631578947368418
sS'existing'
p2314
F0.10526315789473684
sg1867
F0.052631578947368418
sS'privacy'
p2315
F0.052631578947368418
sS'businesses'
p2316
F0.052631578947368418
sS'best'
p2317
F0.10526315789473684
sS'innovation'
p2318
F0.052631578947368418
sS'services'
p2319
F0.052631578947368418
sS'data'
p2320
F0.052631578947368418
sS'dreams'
p2321
F0.052631578947368418
ssg253
(dp2322
S'you'
p2323
F1
ssg287
(dp2324
S'and'
p2325
F1
ssS'strength'
p2326
(dp2327
S''
F1
ssS'nuanced'
p2328
(dp2329
S'and'
p2330
F1
ssg833
(dp2331
g1254
F1
ssS'efficient'
p2332
(dp2333
S'with'
p2334
F1
ssS'paces'
p2335
(dp2336
S''
F1
ssS'locations,'
p2337
(dp2338
S'and'
p2339
F1
ssg2230
(dp2340
S'to'
p2341
F1
ssg1786
(dp2342
S''
F0.16666666666666666
sS'and'
p2343
F0.16666666666666666
sS'into'
p2344
F0.16666666666666666
sS'will'
p2345
F0.16666666666666666
sS'in'
p2346
F0.16666666666666666
sS'by'
p2347
F0.16666666666666666
ssS'targets'
p2348
(dp2349
S''
F1
ssg280
(dp2350
S'that'
p2351
F1
ssS'also'
p2352
(dp2353
S'enable'
p2354
F0.071428571428571425
sS'run'
p2355
F0.071428571428571425
sS'creating'
p2356
F0.071428571428571425
sS'means'
p2357
F0.071428571428571425
sg1201
F0.071428571428571425
sS'deeply'
p2358
F0.071428571428571425
sg1155
F0.071428571428571425
sS'heard'
p2359
F0.071428571428571425
sS'benefit'
p2360
F0.071428571428571425
sS'said'
p2361
F0.071428571428571425
sS'want'
p2362
F0.071428571428571425
sS'making'
p2363
F0.071428571428571425
sS'think'
p2364
F0.071428571428571425
sS'opens'
p2365
F0.071428571428571425
ssg920
(dp2366
S'on'
p2367
F1
ssg1382
(dp2368
g89
F1
ssg281
(dp2369
S'a'
F0.083333333333333329
sS'on'
p2370
F0.25
sS'great'
p2371
F0.083333333333333329
sS'around'
p2372
F0.083333333333333329
sS''
F0.083333333333333329
sS'first-party'
p2373
F0.083333333333333329
sS'the'
p2374
F0.25
sg798
F0.083333333333333329
ssg838
(dp2375
S'will'
p2376
F0.16666666666666666
sS'to'
p2377
F0.16666666666666666
sS'is'
p2378
F0.16666666666666666
sS'we'
p2379
F0.33333333333333331
sS'are'
p2380
F0.16666666666666666
ssS'responsibly'
p2381
(dp2382
S'make'
p2383
F1
ssS'creatively'
p2384
(dp2385
S'extending'
p2386
F1
ssg1613
(dp2387
S'business'
p2388
F0.5
sS'teams'
p2389
F0.5
ssg75
(dp2390
S'a'
F0.16666666666666666
sS'this'
p2391
F0.16666666666666666
sS'our'
p2392
F0.16666666666666666
sS'the'
p2393
F0.16666666666666666
sg1399
F0.16666666666666666
sS'more'
p2394
F0.16666666666666666
ssS'adjusting'
p2395
(dp2396
S'to'
p2397
F1
ssS'transparent'
p2398
(dp2399
S'way'
p2400
F1
ssg980
(dp2401
S'to'
p2402
F1
ssS'such'
p2403
(dp2404
S'as'
p2405
F1
ssg322
(dp2406
S'first'
p2407
F1
ssS'multiple'
p2408
(dp2409
S'devices'
p2410
F1
ssS'allow'
p2411
(dp2412
S'us'
p2413
F1
ssS'deploy'
p2414
(dp2415
g746
F1
ssg493
(dp2416
S'and'
p2417
F1
ssg1922
(dp2418
S'and'
p2419
F0.5
sS'devices'
p2420
F0.5
ssS'who'
p2421
(dp2422
S'will'
p2423
F0.33333333333333331
sS'are'
p2424
F0.33333333333333331
sg845
F0.33333333333333331
ssg38
(dp2425
S'we\xe2\x80\x99ll'
p2426
F1
ssS'systems'
p2427
(dp2428
S'and'
p2429
F1
ssS'translator'
p2430
(dp2431
S''
F1
ssg2386
(dp2432
S'company'
p2433
F1
ssS'experiences'
p2434
(dp2435
S'and'
p2436
F0.13636363636363635
sS''
F0.27272727272727271
sS'span'
p2437
F0.045454545454545456
sS'for'
p2438
F0.090909090909090912
sS'that'
p2439
F0.045454545454545456
sg738
F0.045454545454545456
sS'will'
p2440
F0.13636363636363635
sg1421
F0.045454545454545456
sS'in'
p2441
F0.045454545454545456
sS'our'
p2442
F0.090909090909090912
sS'with'
p2443
F0.045454545454545456
ssS'plan'
p2444
(dp2445
S'carefully'
p2446
F0.0625
sS'to'
p2447
F0.875
sS'that'
p2448
F0.0625
ssg2038
(dp2449
S'changes'
p2450
F1
ssg1378
(dp2451
S'of'
p2452
F1
ssg813
(dp2453
S''
F0.14285714285714285
sS'and'
p2454
F0.14285714285714285
sS'\xe2\x80\x93'
p2455
F0.14285714285714285
sS'used'
p2456
F0.14285714285714285
sg1281
F0.14285714285714285
sS'acquisition'
p2457
F0.14285714285714285
sS'like'
p2458
F0.14285714285714285
ssg80
(dp2459
S'first-party'
p2460
F0.10000000000000001
sS'combination'
p2461
F0.20000000000000001
sS'overall'
p2462
F0.10000000000000001
sg854
F0.10000000000000001
sS'team'
p2463
F0.10000000000000001
sS'more'
p2464
F0.10000000000000001
sg1661
F0.10000000000000001
sg1522
F0.10000000000000001
sS'first'
p2465
F0.10000000000000001
ssg2070
(dp2466
S'in'
p2467
F1
ssS'model'
p2468
(dp2469
S'approach'
p2470
F1
ssS'12,500'
p2471
(dp2472
S'jobs,'
p2473
F0.5
sS'factory'
p2474
F0.5
ssS'marketing'
p2475
(dp2476
S'organizations'
p2477
F1
ssS'understands'
p2478
(dp2479
g1247
F1
ssg1385
(dp2480
g377
F1
ssS'reminds'
p2481
(dp2482
g1017
F1
ssS'mobile'
p2483
(dp2484
S'by'
p2485
F0.5
sS'backend'
p2486
F0.5
ssS'enthusiastic'
p2487
(dp2488
S'about'
p2489
F1
ssg372
(dp2490
S'of'
p2491
F1
ssS'flow'
p2492
(dp2493
S'of'
p2494
F1
ssg2130
(dp2495
S'at'
p2496
F1
ssS'investments'
p2497
(dp2498
S''
F0.33333333333333331
sS'in'
p2499
F0.66666666666666663
ssg1311
(dp2500
S'our'
p2501
F1
ssS'points'
p2502
(dp2503
S'and'
p2504
F1
ssg788
(dp2505
S'teams'
p2506
F1
ssg2358
(dp2507
S'use'
p2508
F1
ssg1392
(dp2509
S'and'
p2510
F0.33333333333333331
sS'employees'
p2511
F0.33333333333333331
sS'power'
p2512
F0.33333333333333331
ssg1597
(dp2513
S'brands,'
p2514
F1
ssg88
(dp2515
S'OS:'
p2516
F0.5
sS'OS'
p2517
F0.5
ssS'sideways,'
p2518
(dp2519
S'to'
p2520
F1
ssS'particularly'
p2521
(dp2522
S'important'
p2523
F0.5
sS'focused'
p2524
F0.5
ssS'departing'
p2525
(dp2526
S'team'
p2527
F1
ssg1905
(dp2528
S'are'
p2529
F1
ssg1083
(dp2530
S'and'
p2531
F1
ssg1761
(dp2532
S'and'
p2533
F0.33333333333333331
sS'with'
p2534
F0.33333333333333331
sS'&'
F0.33333333333333331
ssg3
(dp2535
S'customer'
p2536
F0.16666666666666666
sS'insight'
p2537
F0.16666666666666666
sS'individual'
p2538
F0.16666666666666666
sS'team'
p2539
F0.16666666666666666
sS'new'
p2540
F0.16666666666666666
sg638
F0.16666666666666666
ssS'docs,'
p2541
(dp2542
S'data'
p2543
F1
ssS'bring'
p2544
(dp2545
S'our'
p2546
F0.25
sS'on'
p2547
F0.25
sS'iconic'
p2548
F0.25
sS'to'
p2549
F0.25
ssg1389
(dp2550
S'company,'
p2551
F1
ssg2316
(dp2552
S'and'
p2553
F0.5
sS'in'
p2554
F0.5
ssS'solutions'
p2555
(dp2556
S'from'
p2557
F0.5
sS'that'
p2558
F0.5
ssg10
(dp2559
S'the'
p2560
F1
ssg2446
(dp2561
S'about'
p2562
F1
ssS'scarce'
p2563
(dp2564
S'to'
p2565
F0.33333333333333331
sg1402
F0.66666666666666663
ssg2224
(dp2566
S'for'
p2567
F1
ssS'breakpoints'
p2568
(dp2569
S'between'
p2570
F1
ssS'portfolio'
p2571
(dp2572
S'will'
p2573
F0.5
sg2269
F0.5
ssg724
(dp2574
S''
F0.5
sS'in'
p2575
F0.5
ssS'manageable'
p2576
(dp2577
S'and'
p2578
F1
ssS'impact'
p2579
(dp2580
S''
F0.25
sS'and'
p2581
F0.5
sS'to'
p2582
F0.25
ssS'partners'
p2583
(dp2584
S'will'
p2585
F0.66666666666666663
sS'to'
p2586
F0.33333333333333331
ssg15
(dp2587
g1469
F0.019230769230769232
sS'recognize'
p2588
F0.019230769230769232
sS'expect'
p2589
F0.038461538461538464
sS'will'
p2590
F0.51923076923076927
sS'also'
p2591
F0.038461538461538464
sg874
F0.019230769230769232
sS'are'
p2592
F0.096153846153846159
sS'have'
p2593
F0.057692307692307696
sS'plan'
p2594
F0.096153846153846159
sg783
F0.019230769230769232
sg1983
F0.019230769230769232
sS'must'
p2595
F0.057692307692307696
ssS'smart,'
p2596
(dp2597
S'curious,'
p2598
F1
ssg1973
(dp2599
S'on'
p2600
F1
ssS'quoted'
p2601
(dp2602
g595
F1
ssg223
(dp2603
S'our'
p2604
F1
ssS'true'
p2605
(dp2606
S'scarce'
p2607
F1
ssS'hope'
p2608
(dp2609
S'you'
p2610
F1
ssg2124
(dp2611
S'our'
p2612
F1
ssg640
(dp2613
S'I'
F1
ssg1300
(dp2614
S'and'
p2615
F0.33333333333333331
sS'we'
p2616
F0.33333333333333331
sS'like'
p2617
F0.33333333333333331
ssS'increasingly'
p2618
(dp2619
S'scarce'
p2620
F0.33333333333333331
sS'human'
p2621
F0.33333333333333331
sS'digital'
p2622
F0.33333333333333331
ssS'only'
p2623
(dp2624
g1835
F0.33333333333333331
sg959
F0.66666666666666663
ssg1652
(dp2625
S'Team'
p2626
F1
ssS'customers,'
p2627
(dp2628
S'but'
p2629
F1
ssg1369
(dp2630
S'and'
p2631
F0.20000000000000001
sS'developer'
p2632
F0.20000000000000001
sS'data'
p2633
F0.20000000000000001
sS'context'
p2634
F0.20000000000000001
sS'heritage'
p2635
F0.20000000000000001
ssS'money'
p2636
(dp2637
g1126
F1
ssg2196
(dp2638
S'experiences'
p2639
F1
ssS'enthusiasm'
p2640
(dp2641
g2094
F1
ssg1165
(dp2642
S'or'
p2643
F1
ssS'local'
p2644
(dp2645
g1004
F0.5
sS'market'
p2646
F0.5
ssS'achieve'
p2647
(dp2648
g2307
F0.20000000000000001
sS'more'
p2649
F0.80000000000000004
ssg2407
(dp2650
S'and'
p2651
F0.20000000000000001
sS'phones'
p2652
F0.20000000000000001
sS'step'
p2653
F0.20000000000000001
sg1692
F0.20000000000000001
sS'phone'
p2654
F0.20000000000000001
ssS'Applied'
p2655
(dp2656
g1748
F1
ssg205
(dp2657
S'things'
p2658
F0.1111111111111111
sS'everything'
p2659
F0.1111111111111111
sS'so'
p2660
F0.1111111111111111
sS'their'
p2661
F0.22222222222222221
sS'more'
p2662
F0.44444444444444442
ssS'insight'
p2663
(dp2664
S'from'
p2665
F0.5
sS'can'
p2666
F0.5
ssS'confluence'
p2667
(dp2668
S'of'
p2669
F1
ssg36
(dp2670
S'over'
p2671
F1
ssS'fastest'
p2672
(dp2673
S'growing'
p2674
F1
ssS'digitize'
p2675
(dp2676
S'nearly'
p2677
F1
ssg1547
(dp2678
S'who'
p2679
F1
ssg209
(dp2680
S'and'
p2681
F0.5
sS'ideas'
p2682
F0.5
ssS'broadest'
p2683
(dp2684
g2579
F1
ssg258
(dp2685
S'for'
p2686
F1
ssg1003
(dp2687
S'and'
p2688
F1
ssS'clarity,'
p2689
(dp2690
S'focus'
p2691
F1
ssg2201
(dp2692
S'into'
p2693
F1
ssg20
(dp2694
S'our'
p2695
F0.33333333333333331
sS'the'
p2696
F0.33333333333333331
sS'today'
p2697
F0.33333333333333331
ssg2293
(dp2698
S'to'
p2699
F0.66666666666666663
sS'in'
p2700
F0.33333333333333331
ssg2677
(dp2701
S'everything'
p2702
F1
ssS'words'
p2703
(dp2704
S'say'
p2705
F1
ssg2122
(dp2706
S'and'
p2707
F1
ssS'journey,'
p2708
(dp2709
S'not'
p2710
F1
ssS'GPU'
p2711
(dp2712
S'simulation'
p2713
F1
ssg24
(dp2714
S'a'
F1
ssg934
(dp2715
S'and'
p2716
F1
ssS'win'
p2717
(dp2718
S'in'
p2719
F1
ssS'processes'
p2720
(dp2721
S''
F0.22222222222222221
sS'and'
p2722
F0.22222222222222221
sS'of'
p2723
F0.1111111111111111
sS'but'
p2724
F0.1111111111111111
sS'to'
p2725
F0.22222222222222221
sS'the'
p2726
F0.1111111111111111
ssS'substrate'
p2727
(dp2728
S''
F1
ssg41
(dp2729
S'promise'
p2730
F1
ssg1227
(dp2731
g423
F1
ssg26
(dp2732
S'the'
p2733
F1
ssg2239
(dp2734
S''
F1
ssS'comprising'
p2735
(dp2736
S'both'
p2737
F1
ssg7
(dp2738
S'focus'
p2739
F1
ssS'teams'
p2740
(dp2741
S'and'
p2742
F0.1111111111111111
sS''
F0.22222222222222221
sS'that'
p2743
F0.1111111111111111
sS'into'
p2744
F0.1111111111111111
sS'across'
p2745
F0.1111111111111111
sS'to'
p2746
F0.1111111111111111
sS'in'
p2747
F0.1111111111111111
sS'is'
p2748
F0.1111111111111111
ssS'planned'
p2749
(dp2750
S'changes'
p2751
F1
ssg1215
(dp2752
S'done'
p2753
F0.66666666666666663
sS'like'
p2754
F0.33333333333333331
ssS'maximum'
p2755
(dp2756
S'efficiency'
p2757
F1
ssg2102
(dp2758
S'and'
p2759
F0.5
sS'to'
p2760
F0.5
ssS'discussing'
p2761
(dp2762
S'for'
p2763
F1
ssS'view'
p2764
(dp2765
g2212
F1
ssS'staff'
p2766
(dp2767
S''
F1
ssS'predictive'
p2768
(dp2769
S'analysis'
p2770
F1
ssS'set'
p2771
(dp2772
S'of'
p2773
F0.5
sS'the'
p2774
F0.5
ssS'above'
p2775
(dp2776
S'will'
p2777
F1
ssg778
(dp2778
S'naturally'
p2779
F1
ssg29
(dp2780
S'example,'
p2781
F1
ssS'achieved'
p2782
(dp2783
g506
F1
ssS'intelligence'
p2784
(dp2785
S''
F0.33333333333333331
sS'to'
p2786
F0.33333333333333331
sS'with'
p2787
F0.33333333333333331
ssS'day-to-day'
p2788
(dp2789
g1753
F1
ssg30
(dp2790
S'will'
p2791
F0.5
sS''
F0.5
ssg1408
(dp2792
S'this'
p2793
F0.20000000000000001
sS'to'
p2794
F0.20000000000000001
sS'digital'
p2795
F0.59999999999999998
ssS'Kinect'
p2796
(dp2797
S'for'
p2798
F1
ssS'collectively'
p2799
(dp2800
S'transform'
p2801
F0.5
sg2782
F0.5
ssS'see'
p2802
(dp2803
S'many'
p2804
F0.25
sg2497
F0.25
sS'fewer'
p2805
F0.25
sS'new'
p2806
F0.25
ssS'individual'
p2807
(dp2808
S'and'
p2809
F0.33333333333333331
sS'life'
p2810
F0.1111111111111111
sS'productivity'
p2811
F0.1111111111111111
sS'fulfilment'
p2812
F0.1111111111111111
sS'as'
p2813
F0.1111111111111111
sS'at'
p2814
F0.22222222222222221
ssg1528
(dp2815
S'and'
p2816
F0.10000000000000001
sS''
F0.10000000000000001
sS'taking'
p2817
F0.10000000000000001
sS'to'
p2818
F0.5
sg555
F0.10000000000000001
sS'the'
p2819
F0.10000000000000001
ssg1097
(dp2820
S'of'
p2821
F1
ssS'apps)'
p2822
(dp2823
S'and'
p2824
F1
ssg1359
(dp2825
S'1'
F1
ssS'calendar'
p2826
(dp2827
S'and'
p2828
F0.5
sg1206
F0.5
ssg543
(dp2829
S'we'
p2830
F1
ssg1448
(dp2831
S'cloud'
p2832
F1
ssg858
(dp2833
S'experiences'
p2834
F0.14285714285714285
sS'place'
p2835
F0.2857142857142857
sS'work'
p2836
F0.2857142857142857
sS'productivity'
p2837
F0.14285714285714285
sS'of'
p2838
F0.14285714285714285
ssg2356
(dp2839
S'the'
p2840
F0.66666666666666663
sS'additive'
p2841
F0.33333333333333331
ssS'envisioning'
p2842
(dp2843
S'of'
p2844
F1
ssg1081
(dp2845
g412
F1
ssS'said'
p2846
(dp2847
g2103
F1
ssS'and'
p2848
(dp2849
S'cloud-first'
p2850
F0.028000000000000001
sg2636
F0.0040000000000000001
sS'over'
p2851
F0.0040000000000000001
sS'move'
p2852
F0.0080000000000000002
sS'its'
p2853
F0.0040000000000000001
sS'alignment'
p2854
F0.0040000000000000001
sg2583
F0.012
sg626
F0.0040000000000000001
sS'helping'
p2855
F0.0040000000000000001
sg1228
F0.0080000000000000002
sg2183
F0.0040000000000000001
sg1558
F0.012
sS'Services'
p2856
F0.012
sg2640
F0.0040000000000000001
sS'must'
p2857
F0.0040000000000000001
sg2647
F0.02
sS'take'
p2858
F0.0040000000000000001
sg2655
F0.0080000000000000002
sS'then'
p2859
F0.0040000000000000001
sg325
F0.0040000000000000001
sg1611
F0.0080000000000000002
sg1059
F0.0040000000000000001
sS'every'
p2860
F0.0080000000000000002
sg1838
F0.0040000000000000001
sg2398
F0.0040000000000000001
sS'entire'
p2861
F0.0040000000000000001
sS'helpful'
p2862
F0.0040000000000000001
sS'success'
p2863
F0.0040000000000000001
sg1714
F0.0040000000000000001
sS'where'
p2864
F0.0040000000000000001
sg2768
F0.0040000000000000001
sS'everyone'
p2865
F0.0040000000000000001
sg461
F0.0040000000000000001
sg1743
F0.0040000000000000001
sg464
F0.0040000000000000001
sg1756
F0.0040000000000000001
sS'economic'
p2866
F0.0040000000000000001
sS'are'
p2867
F0.0040000000000000001
sS'our'
p2868
F0.024
sg2826
F0.0040000000000000001
sg504
F0.0040000000000000001
sS'Life'
p2869
F0.0040000000000000001
sg1841
F0.0040000000000000001
sS'business'
p2870
F0.012
sg2518
F0.0040000000000000001
sg529
F0.0040000000000000001
sS'decision'
p2871
F0.0040000000000000001
sg1861
F0.0040000000000000001
sg1864
F0.0040000000000000001
sS'foremost,'
p2872
F0.0040000000000000001
sS'expressing'
p2873
F0.0040000000000000001
sS'between'
p2874
F0.0040000000000000001
sS'new'
p2875
F0.0040000000000000001
sS'moving'
p2876
F0.0040000000000000001
sg583
F0.0040000000000000001
sS'we'
p2877
F0.016
sS'infrastructure'
p2878
F0.0040000000000000001
sS'bold'
p2879
F0.0040000000000000001
sS'power'
p2880
F0.0040000000000000001
sS'real-world'
p2881
F0.0040000000000000001
sg2475
F0.0040000000000000001
sg623
F0.0040000000000000001
sS'understanding'
p2882
F0.0040000000000000001
sg2091
F0.0040000000000000001
sS'culture'
p2883
F0.0080000000000000002
sg1918
F0.0040000000000000001
sS'change'
p2884
F0.0080000000000000002
sS'mindset'
p2885
F0.0040000000000000001
sS'empowering'
p2886
F0.0040000000000000001
sS'extend'
p2887
F0.0040000000000000001
sS'many'
p2888
F0.0080000000000000002
sS'capable'
p2889
F0.0040000000000000001
sS'keep'
p2890
F0.0040000000000000001
sS'personal'
p2891
F0.0040000000000000001
sS'streams'
p2892
F0.0040000000000000001
sg1967
F0.0040000000000000001
sg722
F0.0080000000000000002
sg1314
F0.0040000000000000001
sg744
F0.0040000000000000001
sS'secure'
p2893
F0.0040000000000000001
sg750
F0.0040000000000000001
sS'strategic'
p2894
F0.0080000000000000002
sS'satisfaction'
p2895
F0.0040000000000000001
sS'simply'
p2896
F0.0040000000000000001
sg2033
F0.0040000000000000001
sS'your'
p2897
F0.0040000000000000001
sS'cloud'
p2898
F0.0080000000000000002
sg816
F0.0040000000000000001
sS'consuming'
p2899
F0.0040000000000000001
sg2050
F0.0040000000000000001
sS'working'
p2900
F0.0040000000000000001
sg2062
F0.0080000000000000002
sS'support'
p2901
F0.0080000000000000002
sS'Cortana'
p2902
F0.0040000000000000001
sS'scenarios'
p2903
F0.0040000000000000001
sS'their'
p2904
F0.0040000000000000001
sS'enlivens'
p2905
F0.0040000000000000001
sg2137
F0.0040000000000000001
sS'energy'
p2906
F0.0040000000000000001
sg910
F0.02
sS'remixing'
p2907
F0.0040000000000000001
sg1409
F0.051999999999999998
sS'enable'
p2908
F0.0080000000000000002
sg2149
F0.0040000000000000001
sS'quality-focused'
p2909
F0.0040000000000000001
sS'services"'
p2910
F0.0040000000000000001
sS'with'
p2911
F0.0040000000000000001
sS'Software'
p2912
F0.0040000000000000001
sS"I'll"
p2913
F0.0040000000000000001
sg1020
F0.0080000000000000002
sS'platforms'
p2914
F0.016
sS'also'
p2915
F0.0040000000000000001
sS'work'
p2916
F0.0040000000000000001
sS'devices'
p2917
F0.0040000000000000001
sS'will'
p2918
F0.0040000000000000001
sS'growth'
p2919
F0.0040000000000000001
sg593
F0.0040000000000000001
sg2209
F0.0040000000000000001
sS'my'
p2920
F0.0040000000000000001
sg2242
F0.0040000000000000001
sS'service,'
p2921
F0.0040000000000000001
sg1166
F0.0040000000000000001
sS'embrace'
p2922
F0.0040000000000000001
sS'have'
p2923
F0.0080000000000000002
sS'in'
p2924
F0.0080000000000000002
sS'incubate'
p2925
F0.0040000000000000001
sg1572
F0.0040000000000000001
sS'information'
p2926
F0.0040000000000000001
sS'first-party'
p2927
F0.0080000000000000002
sS'develop'
p2928
F0.0040000000000000001
sg2332
F0.0040000000000000001
sS'make'
p2929
F0.0040000000000000001
sS'hybrid'
p2930
F0.0040000000000000001
sS'ideas'
p2931
F0.0040000000000000001
sS'application'
p2932
F0.0040000000000000001
sS'build'
p2933
F0.0040000000000000001
sS'digital'
p2934
F0.012
sS'products'
p2935
F0.0080000000000000002
sS'developers'
p2936
F0.0040000000000000001
sS'development'
p2937
F0.0040000000000000001
sS'evolve'
p2938
F0.0080000000000000002
sS'product'
p2939
F0.0040000000000000001
sg2414
F0.0040000000000000001
sS'I'
F0.0080000000000000002
sS'third-party'
p2940
F0.0040000000000000001
sS'IT'
p2941
F0.0040000000000000001
sS'delight'
p2942
F0.0080000000000000002
sS'simplify'
p2943
F0.0040000000000000001
sS'said'
p2944
F0.0040000000000000001
sg2434
F0.0080000000000000002
sS'professional'
p2945
F0.0040000000000000001
sS'services'
p2946
F0.0080000000000000002
sS'Hardware:'
p2947
F0.0040000000000000001
sS'grow'
p2948
F0.0040000000000000001
sS'a'
F0.012
sS'laptops'
p2949
F0.0040000000000000001
sg2478
F0.0040000000000000001
sS'for'
p2950
F0.0040000000000000001
sS'seize'
p2951
F0.0040000000000000001
sg2483
F0.0040000000000000001
sS'drive'
p2952
F0.0040000000000000001
sS'provide'
p2953
F0.0040000000000000001
sS'so'
p2954
F0.0040000000000000001
sS'directory'
p2955
F0.0040000000000000001
sS'organization'
p2956
F0.012
sS'the'
p2957
F0.035999999999999997
sg1452
F0.0040000000000000001
ssg34
(dp2958
g887
F1
ssS'ways'
p2959
(dp2960
S''
F0.59999999999999998
sS'to'
p2961
F0.20000000000000001
sS'that'
p2962
F0.20000000000000001
ssS'accomplished'
p2963
(dp2964
S'within'
p2965
F1
ssS'outcomes:'
p2966
(dp2967
S'work'
p2968
F1
ssg2272
(dp2969
S'we'
p2970
F1
ssg2853
(dp2971
S'importance'
p2972
F0.5
sS'integration'
p2973
F0.5
ssg2872
(dp2974
S'these'
p2975
F1
ssg1368
(dp2976
S'on'
p2977
F1
ssS'3'
(dp2978
S'billion'
p2979
F0.66666666666666663
sS'is'
p2980
F0.33333333333333331
ssg53
(dp2981
S'we'
p2982
F1
ssg1197
(dp2983
S'itself,'
p2984
F1
ssg1271
(dp2985
S'which'
p2986
F1
ssg2874
(dp2987
S'using'
p2988
F0.20000000000000001
sS'the'
p2989
F0.20000000000000001
sS'work'
p2990
F0.20000000000000001
sS'teams'
p2991
F0.20000000000000001
sS'people'
p2992
F0.20000000000000001
ssS'July'
p2993
(dp2994
S''
F0.25
sS'to'
p2995
F0.25
sS'22,'
p2996
F0.5
ssS'365'
p2997
(dp2998
S'and'
p2999
F1
ssS'numerous'
p3000
(dp3001
S'more'
p3002
F1
ssg753
(dp3003
S'the'
p3004
F0.55555555555555558
sS'work'
p3005
F0.1111111111111111
sS'company'
p3006
F0.1111111111111111
sS'all'
p3007
F0.1111111111111111
sS'Company'
p3008
F0.1111111111111111
ssg225
(dp3009
S'at'
p3010
F0.25
sS'by'
p3011
F0.5
sS'in'
p3012
F0.25
ssS'Harlow'
p3013
(dp3014
S'with'
p3015
F1
ssg71
(dp3016
S'this'
p3017
F0.25
sg2717
F0.5
sS'align'
p3018
F0.25
ssS'we'
p3019
(dp3020
S'moved'
p3021
F0.013888888888888888
sg2799
F0.013888888888888888
sg2218
F0.125
sg2282
F0.069444444444444448
sS'committed'
p3022
F0.013888888888888888
sS'need'
p3023
F0.013888888888888888
sg2036
F0.013888888888888888
sg2166
F0.013888888888888888
sS'start'
p3024
F0.027777777777777776
sg420
F0.013888888888888888
sS'get'
p3025
F0.013888888888888888
sS'know'
p3026
F0.013888888888888888
sS'now'
p3027
F0.027777777777777776
sg302
F0.069444444444444448
sS'spend'
p3028
F0.013888888888888888
sg403
F0.013888888888888888
sS'work'
p3029
F0.013888888888888888
sg1958
F0.013888888888888888
sS'will'
p3030
F0.30555555555555558
sS'can'
p3031
F0.041666666666666664
sS'think'
p3032
F0.013888888888888888
sg2444
F0.1388888888888889
ssg2878
(dp3033
S'backplane'
p3034
F0.33333333333333331
sS''
F0.33333333333333331
sS'that'
p3035
F0.33333333333333331
ssS'jobs'
p3036
(dp3037
S'will'
p3038
F0.33333333333333331
sS'is'
p3039
F0.33333333333333331
sS'in'
p3040
F0.33333333333333331
ssS'ability'
p3041
(dp3042
S'to'
p3043
F1
ssg2887
(dp3044
S'our'
p3045
F1
ssg2226
(dp3046
S'roles'
p3047
F1
ssg2972
(dp3048
S'to'
p3049
F0.5
sS'of'
p3050
F0.5
ssg1035
(dp3051
S'that'
p3052
F1
ssS'attention'
p3053
(dp3054
S''
F1
ssg230
(dp3055
S'on'
p3056
F0.22222222222222221
sS'great'
p3057
F0.1111111111111111
sS'additional'
p3058
F0.1111111111111111
sS'digital'
p3059
F0.1111111111111111
sS'the'
p3060
F0.33333333333333331
sS'local'
p3061
F0.1111111111111111
ssg1268
(dp3062
g552
F1
ssg2757
(dp3063
S'with'
p3064
F1
ssS'job'
p3065
(dp3066
S''
F0.33333333333333331
sg680
F0.33333333333333331
sg1525
F0.33333333333333331
ssS'invest'
p3067
(dp3068
S''
F0.5
sS'so'
p3069
F0.5
ssg57
(dp3070
S'decisions'
p3071
F0.5
sS'changes'
p3072
F0.5
ssg1044
(dp3073
S'result'
p3074
F1
ssS'key'
p3075
(dp3076
g1914
F1
ssg2626
(dp3077
S'and'
p3078
F0.33333333333333331
sS'to'
p3079
F0.33333333333333331
sS'member'
p3080
F0.33333333333333331
ssg1380
(dp3081
S'of'
p3082
F1
ssg2882
(dp3083
S'what'
p3084
F1
ssg393
(dp3085
S'together'
p3086
F1
ssS"company's"
p3087
(dp3088
S'digital'
p3089
F1
ssg2907
(dp3090
S'it'
p3091
F1
ssS'concentrated'
p3092
(dp3093
S''
F0.5
sS'in'
p3094
F0.5
ssg1031
(dp3095
g2959
F0.5
sS'people'
p3096
F0.5
ssg2856
(dp3097
S'is'
p3098
F0.33333333333333331
sg1476
F0.33333333333333331
sS'integration'
p3099
F0.33333333333333331
ssg1069
(dp3100
S'synergies'
p3101
F1
ssS'last'
p3102
(dp3103
g1942
F0.5
sS'few'
p3104
F0.5
ssg1119
(dp3105
g894
F1
ssS'many'
p3106
(dp3107
S'people'
p3108
F0.1111111111111111
sS'of'
p3109
F0.22222222222222221
sg2337
F0.1111111111111111
sS'devices'
p3110
F0.1111111111111111
sS'technologies'
p3111
F0.1111111111111111
sS'more'
p3112
F0.33333333333333331
ssS'taking'
p3113
(dp3114
S'a'
F0.5
sS'actions'
p3115
F0.5
ssg234
(dp3116
S'down'
p3117
F1
ssg1534
(dp3118
S'and'
p3119
F0.5
sS'with'
p3120
F0.5
ssS'enabling'
p3121
(dp3122
g2189
F0.5
sS'enterprises'
p3123
F0.5
ssS'voiceless'
p3124
(dp3125
S''
F1
ssg308
(dp3126
S'on'
p3127
F1
ssg2892
(dp3128
S'of'
p3129
F1
ssg2457
(dp3130
S''
F0.5
sg3102
F0.5
ssg2634
(dp3131
S'of'
p3132
F1
ssg46
(dp3133
S'we'
p3134
F1
ssg2035
(dp3135
S'Product'
p3136
F1
ssS'operating'
p3137
(dp3138
g2427
F1
ssS'plan,'
p3139
(dp3140
S'the'
p3141
F1
ssS'Company'
p3142
(dp3143
S''
F0.20000000000000001
sS'and'
p3144
F0.050000000000000003
sS'all'
p3145
F0.050000000000000003
sS'is'
p3146
F0.050000000000000003
sS'workforce'
p3147
F0.050000000000000003
sg983
F0.14999999999999999
sS'as'
p3148
F0.050000000000000003
sS'devices'
p3149
F0.050000000000000003
sS'have'
p3150
F0.050000000000000003
sS'team'
p3151
F0.050000000000000003
sS'X'
F0.20000000000000001
sS'was'
p3152
F0.050000000000000003
ssg2005
(dp3153
S'with'
p3154
F1
ssg1890
(dp3155
S'people'
p3156
F1
ssS'adjusted'
p3157
(dp3158
S''
F1
ssg49
(dp3159
S'for'
p3160
F1
ssS'necessary'
p3161
(dp3162
S''
F1
ssg40
(dp3163
S'organization'
p3164
F0.5
sS'engineering'
p3165
F0.5
ssS'rapidly,'
p3166
(dp3167
S'and'
p3168
F1
ssg240
(dp3169
S'and'
p3170
F1
ssg2895
(dp3171
S''
F1
ssg1388
(dp3172
S'of'
p3173
F1
ssS'PPI,'
p3174
(dp3175
S'device'
p3176
F1
ssg2109
(dp3177
g2481
F0.5
sS'disappear'
p3178
F0.5
ssg2121
(dp3179
S'the'
p3180
F1
ssg242
(dp3181
S'the'
p3182
F1
ssg1643
(dp3183
S'they'
p3184
F0.33333333333333331
sS'tradition'
p3185
F0.33333333333333331
sS'for'
p3186
F0.33333333333333331
ssS'tiers,'
p3187
(dp3188
S'we'
p3189
F1
ssS'throughout'
p3190
(dp3191
S'the'
p3192
F0.5
sS'July'
p3193
F0.5
ssS'Smart'
p3194
(dp3195
S'Devices'
p3196
F1
ssg2486
(dp3197
S'services,'
p3198
F1
ssS'conference'
p3199
(dp3200
S'rooms,'
p3201
F1
ssg2899
(dp3202
S'data'
p3203
F1
ssg2285
(dp3204
S'ourselves'
p3205
F0.5
sS'in'
p3206
F0.5
ssg807
(dp3207
S'for'
p3208
F1
ssS"I've"
p3209
(dp3210
S'asked'
p3211
F0.5
sS'been'
p3212
F0.5
ssg1117
(dp3213
S'Q&A'
p3214
F1
ssS"it's"
p3215
(dp3216
S'critical'
p3217
F0.33333333333333331
sS'important'
p3218
F0.33333333333333331
sS'one'
p3219
F0.33333333333333331
ssS'create'
p3220
(dp3221
S'a'
F0.25
sS'technology'
p3222
F0.25
sg610
F0.25
sS'more'
p3223
F0.25
ssg2921
(dp3224
S'and'
p3225
F1
ssg2426
(dp3226
S'continue'
p3227
F1
ssg2902
(dp3228
S''
F0.5
sg757
F0.5
ssg3212
(dp3229
S'part'
p3230
F0.5
sg2761
F0.5
ssS'strategy'
p3231
(dp3232
S''
F0.375
sS'and'
p3233
F0.25
sS'is'
p3234
F0.125
sS'for'
p3235
F0.125
sS'must'
p3236
F0.125
ssg42
(dp3237
g1075
F1
ssg1270
(dp3238
S''
F0.40000000000000002
sS'merges'
p3239
F0.20000000000000001
sS'devices'
p3240
F0.20000000000000001
sS'volume'
p3241
F0.20000000000000001
ssS'increase'
p3242
(dp3243
S'our'
p3244
F0.5
sS'the'
p3245
F0.5
ssg2090
(dp3246
S'clarity'
p3247
F0.5
sS'time'
p3248
F0.5
ssS"Rilke's"
p3249
(dp3250
g2703
F1
ssS'combined'
p3251
(dp3252
S'functions:'
p3253
F1
ssg2905
(dp3254
S'Company\xe2\x80\x99s'
p3255
F1
ssg270
(dp3256
S'these'
p3257
F0.5
sS'that'
p3258
F0.5
ssS'expected'
p3259
(dp3260
S'to'
p3261
F1
ssS'deliberately'
p3262
(dp3263
S'aligns'
p3264
F1
ssg1562
(dp3265
S''
F0.5
sS'so'
p3266
F0.5
ssg1372
(dp3267
S'to'
p3268
F1
ssg9
(dp3269
S'the'
p3270
F1
ssg250
(dp3271
S'mobile'
p3272
F0.5
sS'the'
p3273
F0.5
ssS'direction'
p3274
(dp3275
S'and'
p3276
F0.20000000000000001
sS''
F0.20000000000000001
sS'as'
p3277
F0.20000000000000001
sg3262
F0.20000000000000001
sS'in'
p3278
F0.20000000000000001
ssg2126
(dp3279
S'a'
F0.10000000000000001
sS'organizations'
p3280
F0.10000000000000001
sS'all'
p3281
F0.10000000000000001
sS'people'
p3282
F0.10000000000000001
sS'this'
p3283
F0.10000000000000001
sS'broad'
p3284
F0.10000000000000001
sg2194
F0.10000000000000001
sS'IT'
p3285
F0.10000000000000001
sS'customers'
p3286
F0.10000000000000001
sS'our'
p3287
F0.10000000000000001
ssg155
(dp3288
S'this'
p3289
F1
ssg19
(dp3290
S'that'
p3291
F1
ssS'both'
p3292
(dp3293
g2065
F0.125
sg2265
F0.125
sS'to'
p3294
F0.125
sS'time'
p3295
F0.125
sS'professional'
p3296
F0.125
sS'the'
p3297
F0.375
ssg2300
(dp3298
S'and'
p3299
F0.5
sS'in'
p3300
F0.5
ssS'am'
p3301
(dp3302
g1510
F1
ssS'formed'
p3303
(dp3304
S''
F1
ssg2371
(dp3305
S'work'
p3306
F0.16666666666666666
sS'breakthrough'
p3307
F0.16666666666666666
sS'benefit'
p3308
F0.16666666666666666
sS'digital'
p3309
F0.16666666666666666
sS'opportunity'
p3310
F0.16666666666666666
sS'example'
p3311
F0.16666666666666666
ssg59
(dp3312
S'we'
p3313
F1
ssg3123
(dp3314
S'to'
p3315
F1
ssg1798
(dp3316
S'we'
p3317
F1
ssg257
(dp3318
S'the'
p3319
F1
ssg101
(dp3320
S'and'
p3321
F0.5
sS'the'
p3322
F0.5
ssg931
(dp3323
S'for'
p3324
F1
ssS'acquiring'
p3325
(dp3326
S'new'
p3327
F1
ssg1355
(dp3328
S'industry'
p3329
F1
ssg364
(dp3330
S'for'
p3331
F1
ssS'former'
p3332
(dp3333
g3194
F1
ssg2912
(dp3334
S'Engineering'
p3335
F1
ssg62
(dp3336
S'culture'
p3337
F0.16666666666666666
sS'we'
p3338
F0.33333333333333331
sS'stuff'
p3339
F0.16666666666666666
sS'in'
p3340
F0.16666666666666666
sS'if'
p3341
F0.16666666666666666
ssg714
(dp3342
S'more'
p3343
F1
ssg3217
(dp3344
S'to'
p3345
F1
ssg64
(dp3346
g448
F1
ssg2975
(dp3347
S'last'
p3348
F0.090909090909090912
sS'decisions'
p3349
F0.090909090909090912
sS'apps'
p3350
F0.090909090909090912
sg2279
F0.090909090909090912
sg299
F0.090909090909090912
sS'experiences'
p3351
F0.18181818181818182
sS'changes'
p3352
F0.27272727272727271
sg2749
F0.090909090909090912
ssg211
(dp3353
S'work'
p3354
F1
ssS'align'
p3355
(dp3356
S'to'
p3357
F0.66666666666666663
sS'with'
p3358
F0.33333333333333331
ssg661
(dp3359
S'with'
p3360
F1
ssS'engineering'
p3361
(dp3362
S'and'
p3363
F0.125
sS'processes'
p3364
F0.25
sS'group'
p3365
F0.125
sS'process'
p3366
F0.125
sS'work'
p3367
F0.125
sS'teams'
p3368
F0.125
sS'efforts'
p3369
F0.125
ssg65
(dp3370
S'of'
p3371
F1
ssg2064
(dp3372
S''
F0.5
sS'on'
p3373
F0.5
ssS'will'
p3374
(dp3375
S'all'
p3376
F0.016260162601626018
sg2771
F0.008130081300813009
sS'determine'
p3377
F0.008130081300813009
sS'be'
p3378
F0.2032520325203252
sg1158
F0.024390243902439025
sg1490
F0.008130081300813009
sg2544
F0.008130081300813009
sg2802
F0.032520325203252036
sS'experience'
p3379
F0.008130081300813009
sS'have'
p3380
F0.016260162601626018
sS'go'
p3381
F0.008130081300813009
sS'modernize'
p3382
F0.008130081300813009
sg1182
F0.008130081300813009
sg3242
F0.008130081300813009
sS'use'
p3383
F0.008130081300813009
sg1535
F0.008130081300813009
sg1326
F0.008130081300813009
sS'also'
p3384
F0.024390243902439025
sg3220
F0.016260162601626018
sS'offer'
p3385
F0.008130081300813009
sS'evolve'
p3386
F0.024390243902439025
sS'transform'
p3387
F0.008130081300813009
sS'realize'
p3388
F0.008130081300813009
sg1630
F0.008130081300813009
sS'their'
p3389
F0.008130081300813009
sS'build'
p3390
F0.032520325203252036
sg2381
F0.008130081300813009
sg884
F0.008130081300813009
sS'ensure'
p3391
F0.008130081300813009
sS'thrive'
p3392
F0.016260162601626018
sg1878
F0.016260162601626018
sS'do'
p3393
F0.016260162601626018
sS'begin'
p3394
F0.008130081300813009
sS'enable'
p3395
F0.024390243902439025
sg2675
F0.008130081300813009
sS'express'
p3396
F0.008130081300813009
sS'deliver'
p3397
F0.016260162601626018
sS'focus'
p3398
F0.032520325203252036
sS'simplify'
p3399
F0.008130081300813009
sg1906
F0.008130081300813009
sg3067
F0.008130081300813009
sS'understand'
p3400
F0.008130081300813009
sS'become'
p3401
F0.008130081300813009
sg775
F0.016260162601626018
sg368
F0.008130081300813009
sg1006
F0.008130081300813009
sg1345
F0.008130081300813009
sS'change'
p3402
F0.024390243902439025
sS'shine'
p3403
F0.008130081300813009
sS'collectively'
p3404
F0.008130081300813009
sg684
F0.008130081300813009
sg3355
F0.008130081300813009
sS'work'
p3405
F0.008130081300813009
sg409
F0.008130081300813009
sg1566
F0.04878048780487805
sg1911
F0.008130081300813009
sg2411
F0.016260162601626018
sg1406
F0.024390243902439025
sS'push'
p3406
F0.008130081300813009
sS'meet'
p3407
F0.008130081300813009
sg435
F0.024390243902439025
sS'think'
p3408
F0.008130081300813009
ssg1106
(dp3409
S''
F0.5
sS'change'
p3410
F0.5
ssS'while'
p3411
(dp3412
S'keeping'
p3413
F0.125
sg2006
F0.125
sS'continuing'
p3414
F0.25
sS'we'
p3415
F0.125
sS'also'
p3416
F0.25
sg1664
F0.125
ssg45
(dp3417
S'Maria'
p3418
F1
ssS'ongoing'
p3419
(dp3420
g1822
F1
ssS'smart'
p3421
(dp3422
S'choices'
p3423
F1
ssg1814
(dp3424
S'partners,'
p3425
F1
ssg1217
(dp3426
S'in'
p3427
F1
ssg1676
(dp3428
g1952
F1
ssS'intranet'
p3429
(dp3430
S''
F1
ssg1817
(dp3431
S'we'
p3432
F1
ssS'balance'
p3433
(dp3434
S'between'
p3435
F1
ssg2019
(dp3436
S'platforms'
p3437
F0.5
sS'digital'
p3438
F0.5
ssS'ago'
p3439
(dp3440
S'on'
p3441
F1
ssg2105
(dp3442
S'the'
p3443
F1
ssS'almost'
p3444
(dp3445
S'limitless,'
p3446
F1
ssS'is'
p3447
(dp3448
g2521
F0.029411764705882353
sg1142
F0.029411764705882353
sg3444
F0.029411764705882353
sS'an'
p3449
F0.029411764705882353
sS'our'
p3450
F0.029411764705882353
sS'different'
p3451
F0.029411764705882353
sS'responsible'
p3452
F0.029411764705882353
sS"everybody's"
p3453
F0.029411764705882353
sS'to'
p3454
F0.14705882352941177
sg3259
F0.029411764705882353
sg1260
F0.029411764705882353
sg1278
F0.029411764705882353
sS'intended'
p3455
F0.029411764705882353
sS'that'
p3456
F0.029411764705882353
sS'becoming'
p3457
F0.029411764705882353
sS'focused'
p3458
F0.029411764705882353
sS'necessary'
p3459
F0.029411764705882353
sS'one'
p3460
F0.029411764705882353
sS'a'
F0.029411764705882353
sg2160
F0.029411764705882353
sg2618
F0.029411764705882353
sS'largely'
p3461
F0.029411764705882353
sS'clear'
p3462
F0.029411764705882353
sS'well'
p3463
F0.029411764705882353
sS'the'
p3464
F0.14705882352941177
sS'starting'
p3465
F0.029411764705882353
ssg691
(dp3466
S'while'
p3467
F1
ssS'it'
p3468
(dp3469
S''
F0.058823529411764705
sS'happens'
p3470
F0.058823529411764705
sS'takes'
p3471
F0.058823529411764705
sS'means'
p3472
F0.058823529411764705
sS'was'
p3473
F0.058823529411764705
sS'is'
p3474
F0.11764705882352941
sS'will'
p3475
F0.058823529411764705
sS'to'
p3476
F0.058823529411764705
sg2623
F0.058823529411764705
sS'easy'
p3477
F0.058823529411764705
sS'in'
p3478
F0.058823529411764705
sS'not'
p3479
F0.058823529411764705
sg1653
F0.058823529411764705
sS'with'
p3480
F0.058823529411764705
sS'by'
p3481
F0.058823529411764705
sg1849
F0.058823529411764705
ssS'cars,'
p3482
(dp3483
g2099
F1
ssS'hardware'
p3484
(dp3485
S'will'
p3486
F0.33333333333333331
sS'to'
p3487
F0.16666666666666666
sS'and'
p3488
F0.16666666666666666
sS'business'
p3489
F0.16666666666666666
sS'that'
p3490
F0.16666666666666666
ssS'unit'
p3491
(dp3492
S'will'
p3493
F0.5
sS'that'
p3494
F0.5
ssS'itself'
p3495
(dp3496
S'in'
p3497
F1
ssg2922
(dp3498
S'what'
p3499
F1
ssg1358
(dp3500
S'use'
p3501
F0.5
sS'user'
p3502
F0.25
sS'users'
p3503
F0.25
ssg2244
(dp3504
g2784
F1
ssg2951
(dp3505
S'the'
p3506
F1
ssg18
(dp3507
S'week'
p3508
F1
ssg73
(dp3509
S'will'
p3510
F0.5
sS'can'
p3511
F0.5
ssg2925
(dp3512
S'new'
p3513
F1
ssS'technology'
p3514
(dp3515
S'for'
p3516
F0.16666666666666666
sS'that'
p3517
F0.16666666666666666
sS'creates'
p3518
F0.16666666666666666
sg3411
F0.16666666666666666
sS'in'
p3519
F0.16666666666666666
sS'spend'
p3520
F0.16666666666666666
ssg3178
(dp3521
S'into'
p3522
F1
ssS'personal,'
p3523
(dp3524
S'intelligent,'
p3525
F1
ssg274
(dp3526
S'in'
p3527
F1
ssS'Jo'
p3528
(dp3529
g3013
F1
ssS'different'
p3530
(dp3531
g2335
F0.33333333333333331
sg2502
F0.33333333333333331
sS'than'
p3532
F0.33333333333333331
ssg2114
(dp3533
g3166
F1
ssS'productivity'
p3534
(dp3535
S'and'
p3536
F0.33333333333333331
sS''
F0.047619047619047616
sg1191
F0.047619047619047616
sS'tablet'
p3537
F0.047619047619047616
sS'for'
p3538
F0.095238095238095233
sS'to'
p3539
F0.14285714285714285
sS'experiences'
p3540
F0.095238095238095233
sS'services,'
p3541
F0.047619047619047616
sS'efforts'
p3542
F0.047619047619047616
sS'beyond'
p3543
F0.047619047619047616
sS'tools'
p3544
F0.047619047619047616
ssg2461
(dp3545
S'of'
p3546
F1
ssg1843
(dp3547
S'done'
p3548
F0.5
sS'with'
p3549
F0.25
sg345
F0.25
ssg279
(dp3550
S'a'
F0.1111111111111111
sS'this'
p3551
F0.1111111111111111
sS'company'
p3552
F0.1111111111111111
sS'some'
p3553
F0.1111111111111111
sS'it'
p3554
F0.1111111111111111
sS'the'
p3555
F0.33333333333333331
sg3421
F0.1111111111111111
ssg3453
(dp3556
S'job'
p3557
F1
ssg2289
(dp3558
g162
F0.25
sS'processes'
p3559
F0.25
sg2568
F0.25
sS'people'
p3560
F0.25
ssS'short,'
p3561
(dp3562
S'we'
p3563
F1
ssg777
(dp3564
S'question'
p3565
F1
ssg1710
(dp3566
S'will'
p3567
F0.5
sS'of'
p3568
F0.5
ssS'\xe2\x80\x9cdo'
p3569
(dp3570
S'more'
p3571
F1
ssg1513
(dp3572
S'we'
p3573
F1
ssg1367
(dp3574
S'task'
p3575
F1
ssg537
(dp3576
S'recognition'
p3577
F1
ssS'largest'
p3578
(dp3579
S'opportunity'
p3580
F1
ssg756
(dp3581
S'to'
p3582
F1
ssS'--'
p3583
(dp3584
S'is'
p3585
F1
ssg2514
(dp3586
S'with'
p3587
F1
ssS'higher'
p3588
(dp3589
S'price'
p3590
F0.66666666666666663
sg400
F0.33333333333333331
ssg2937
(dp3591
S'and'
p3592
F1
ssg2938
(dp3593
S'and'
p3594
F0.16666666666666666
sS''
F0.16666666666666666
sS'to'
p3595
F0.16666666666666666
sS'so'
p3596
F0.16666666666666666
sS'our'
p3597
F0.16666666666666666
sS'the'
p3598
F0.16666666666666666
ssg2456
(dp3599
S'for'
p3600
F1
ssS'I'
(dp3601
S'delight'
p3602
F0.040000000000000001
sg2846
F0.040000000000000001
sg1729
F0.040000000000000001
sg111
F0.040000000000000001
sg2601
F0.040000000000000001
sS'bring'
p3603
F0.040000000000000001
sS'question'
p3604
F0.040000000000000001
sS'synthesized'
p3605
F0.040000000000000001
sg3301
F0.080000000000000002
sg2140
F0.040000000000000001
sg1332
F0.040000000000000001
sg3374
F0.040000000000000001
sg2352
F0.080000000000000002
sS'have'
p3606
F0.040000000000000001
sg2608
F0.080000000000000002
sg1173
F0.12
sS'learn'
p3607
F0.040000000000000001
sS'think'
p3608
F0.040000000000000001
sS'change'
p3609
F0.040000000000000001
sS'help'
p3610
F0.040000000000000001
ssg1894
(dp3611
g2764
F1
ssg1008
(dp3612
g2245
F1
ssg2940
(dp3613
g2822
F0.5
sS'extensibility'
p3614
F0.5
ssg2812
(dp3615
S'and'
p3616
F1
ssg958
(dp3617
S'and'
p3618
F0.25
sS'organizations'
p3619
F0.25
sg501
F0.25
sS''
F0.25
ssS'possible'
p3620
(dp3621
S''
F1
ssS'delight'
p3622
(dp3623
S''
F0.25
sS'of'
p3624
F0.25
sS'gamers'
p3625
F0.5
ssS'running'
p3626
(dp3627
S'a'
F0.33333333333333331
sS''
F0.33333333333333331
sg1296
F0.33333333333333331
ssg2237
(dp3628
S'forward'
p3629
F0.25
sS'now'
p3630
F0.25
sS'from'
p3631
F0.25
sS'at'
p3632
F0.25
ssg523
(dp3633
S'as'
p3634
F0.20000000000000001
sS'with'
p3635
F0.20000000000000001
sS'\xe2\x80\x93'
p3636
F0.20000000000000001
sS'experience'
p3637
F0.20000000000000001
sS'in'
p3638
F0.20000000000000001
ssg3455
(dp3639
S'to'
p3640
F1
ssg955
(dp3641
S'globally'
p3642
F1
ssg2128
(dp3643
g3036
F1
ssg2947
(dp3644
S'Our'
p3645
F1
ssg1970
(dp3646
S''
F0.16666666666666666
sS'\xe2\x80\x93'
p3647
F0.083333333333333329
sg677
F0.083333333333333329
sS'for'
p3648
F0.083333333333333329
sg3209
F0.083333333333333329
sg2047
F0.083333333333333329
sS'to'
p3649
F0.25
sS'with'
p3650
F0.083333333333333329
sS'by'
p3651
F0.083333333333333329
ssg3185
(dp3652
S'\xe2\x80\x93'
p3653
F1
ssS'identity'
p3654
(dp3655
S'and'
p3656
F1
ssS'built'
p3657
(dp3658
S''
F0.5
sS'for'
p3659
F0.5
ssg3575
(dp3660
S'like'
p3661
F1
ssS'in'
p3662
(dp3663
S'control'
p3664
F0.014084507042253521
sS''
F0.014084507042253521
sS'all'
p3665
F0.014084507042253521
sS'certain'
p3666
F0.014084507042253521
sS'some'
p3667
F0.014084507042253521
sg601
F0.014084507042253521
sS'an'
p3668
F0.028169014084507043
sg2796
F0.014084507042253521
sg1770
F0.042253521126760563
sS'decisions'
p3669
F0.014084507042253521
sS'your'
p3670
F0.014084507042253521
sS'alignment'
p3671
F0.014084507042253521
sg3199
F0.014084507042253521
sS'my'
p3672
F0.014084507042253521
sS'productivity'
p3673
F0.014084507042253521
sS'how'
p3674
F0.014084507042253521
sS'ways'
p3675
F0.014084507042253521
sg1514
F0.014084507042253521
sS'product,'
p3676
F0.014084507042253521
sS'two'
p3677
F0.014084507042253521
sS'their'
p3678
F0.014084507042253521
sS'which'
p3679
F0.014084507042253521
sS'digital'
p3680
F0.014084507042253521
sS'new'
p3681
F0.014084507042253521
sg2255
F0.014084507042253521
sS'life'
p3682
F0.028169014084507043
sg668
F0.014084507042253521
sS'on'
p3683
F0.014084507042253521
sg2395
F0.014084507042253521
sg604
F0.014084507042253521
sg1619
F0.014084507042253521
sS'every'
p3684
F0.014084507042253521
sS'purpose'
p3685
F0.014084507042253521
sS'a'
F0.070422535211267609
sS'both'
p3686
F0.028169014084507043
sS'this'
p3687
F0.014084507042253521
sS'starting'
p3688
F0.014084507042253521
sS'us,'
p3689
F0.014084507042253521
sS'these'
p3690
F0.014084507042253521
sg2198
F0.014084507042253521
sS'place'
p3691
F0.014084507042253521
sS'many'
p3692
F0.014084507042253521
sS'the'
p3693
F0.22535211267605634
sS'Skype,'
p3694
F0.014084507042253521
sg1449
F0.042253521126760563
ssS'center'
p3695
(dp3696
S'and'
p3697
F0.33333333333333331
sS'of'
p3698
F0.33333333333333331
sS''
F0.33333333333333331
ssg3461
(dp3699
S'unchanging,'
p3700
F1
ssS'people,'
p3701
(dp3702
S'not'
p3703
F0.33333333333333331
sS'will'
p3704
F0.33333333333333331
sg2740
F0.33333333333333331
ssg2450
(dp3705
S''
F0.071428571428571425
sS'we'
p3706
F0.14285714285714285
sS'already'
p3707
F0.071428571428571425
sS'these'
p3708
F0.071428571428571425
sS'required'
p3709
F0.071428571428571425
sS'will'
p3710
F0.14285714285714285
sS'to'
p3711
F0.14285714285714285
sS'are'
p3712
F0.14285714285714285
sg2775
F0.071428571428571425
sg3662
F0.071428571428571425
ssS'incredible'
p3713
(dp3714
g1880
F1
ssg557
(dp3715
S'as'
p3716
F0.59999999999999998
sg1825
F0.20000000000000001
sS'underway'
p3717
F0.20000000000000001
ssg83
(dp3718
S'also'
p3719
F0.66666666666666663
sS'is'
p3720
F0.33333333333333331
ssg2770
(dp3721
S'of'
p3722
F1
ssg3211
(dp3723
S'each'
p3724
F1
ssg1441
(dp3725
S'and'
p3726
F1
ssg2292
(dp3727
S'in'
p3728
F1
ssg294
(dp3729
S'the'
p3730
F1
ssg86
(dp3731
S'addition,'
p3732
F0.30769230769230771
sS'this'
p3733
F0.076923076923076927
sS'addition'
p3734
F0.076923076923076927
sg3561
F0.076923076923076927
sS'making'
p3735
F0.076923076923076927
sS'the'
p3736
F0.23076923076923078
sg650
F0.076923076923076927
sS'order'
p3737
F0.076923076923076927
ssg2956
(dp3738
S''
F0.23076923076923078
sS'on'
p3739
F0.15384615384615385
sS'and'
p3740
F0.23076923076923078
sS'for'
p3741
F0.076923076923076927
sS'is'
p3742
F0.076923076923076927
sS'will'
p3743
F0.076923076923076927
sS'to'
p3744
F0.076923076923076927
sS'changes'
p3745
F0.076923076923076927
ssg1999
(dp3746
g1464
F0.0049751243781094526
sS'hands'
p3747
F0.0049751243781094526
sS'soon'
p3748
F0.0049751243781094526
sg140
F0.0049751243781094526
sg1496
F0.0049751243781094526
sS'company,'
p3749
F0.0049751243781094526
sg2555
F0.0049751243781094526
sS'portfolio'
p3750
F0.0049751243781094526
sS'alignment'
p3751
F0.0049751243781094526
sg3124
F0.0049751243781094526
sg3142
F0.014925373134328358
sg1551
F0.0049751243781094526
sS'desktop'
p3752
F0.0049751243781094526
sS'team,'
p3753
F0.0049751243781094526
sS'Applications'
p3754
F0.0049751243781094526
sS'only'
p3755
F0.0049751243781094526
sS'rich'
p3756
F0.0049751243781094526
sS'role'
p3757
F0.0049751243781094526
sS'momentum'
p3758
F0.0049751243781094526
sg1595
F0.0049751243781094526
sS'fluidity'
p3759
F0.0049751243781094526
sg1608
F0.0049751243781094526
sS'very'
p3760
F0.0099502487562189053
sg2683
F0.0049751243781094526
sS'results'
p3761
F0.0049751243781094526
sS'courage'
p3762
F0.0099502487562189053
sg2672
F0.0049751243781094526
sS'background'
p3763
F0.0049751243781094526
sS'new'
p3764
F0.0049751243781094526
sg2708
F0.0049751243781094526
sS'world'
p3765
F0.029850746268656716
sg1650
F0.0099502487562189053
sS'day'
p3766
F0.0049751243781094526
sS'vast'
p3767
F0.0049751243781094526
sS'areas'
p3768
F0.0099502487562189053
sS'entire'
p3769
F0.0049751243781094526
sg1647
F0.0049751243781094526
sS'success'
p3770
F0.0049751243781094526
sS'teams'
p3771
F0.0099502487562189053
sg2689
F0.0049751243781094526
sg417
F0.0049751243781094526
sS'Cortana'
p3772
F0.0049751243781094526
sS'team'
p3773
F0.0049751243781094526
sg394
F0.0049751243781094526
sS'right'
p3774
F0.019900497512437811
sS'intelligence'
p3775
F0.0049751243781094526
sg1740
F0.0049751243781094526
sS'past'
p3776
F0.0099502487562189053
sg483
F0.0049751243781094526
sS'respect'
p3777
F0.0099502487562189053
sS'best'
p3778
F0.014925373134328358
sg2842
F0.0049751243781094526
sS'effort,'
p3779
F0.0049751243781094526
sg534
F0.0099502487562189053
sS'Smart'
p3780
F0.0049751243781094526
sg3419
F0.0049751243781094526
sg693
F0.0099502487562189053
sg598
F0.0049751243781094526
sg1885
F0.0049751243781094526
sS'business'
p3781
F0.0049751243781094526
sg3065
F0.0049751243781094526
sg2667
F0.0049751243781094526
sS'great'
p3782
F0.0049751243781094526
sg1935
F0.0049751243781094526
sS'transition'
p3783
F0.0049751243781094526
sg708
F0.0049751243781094526
sS'changes'
p3784
F0.0049751243781094526
sS'first'
p3785
F0.0099502487562189053
sg1393
F0.0099502487562189053
sg2009
F0.0049751243781094526
sS'strategic'
p3786
F0.0099502487562189053
sS'appropriate'
p3787
F0.0049751243781094526
sS'weather'
p3788
F0.0049751243781094526
sS'table'
p3789
F0.0049751243781094526
sg792
F0.0049751243781094526
sS'market'
p3790
F0.024875621890547265
sg2042
F0.0049751243781094526
sS'management'
p3791
F0.0049751243781094526
sS'span'
p3792
F0.0049751243781094526
sS'opportunity'
p3793
F0.0099502487562189053
sg856
F0.0099502487562189053
sg860
F0.029850746268656716
sS'start'
p3794
F0.0049751243781094526
sS'way'
p3795
F0.0049751243781094526
sS'markets'
p3796
F0.0049751243781094526
sS'more'
p3797
F0.0099502487562189053
sg950
F0.0049751243781094526
sS'company'
p3798
F0.0099502487562189053
sS'transferring'
p3799
F0.0049751243781094526
sS'Devices'
p3800
F0.0049751243781094526
sS'phone'
p3801
F0.0049751243781094526
sg2605
F0.0049751243781094526
sg3332
F0.0049751243781094526
sS'customer'
p3802
F0.0049751243781094526
sg2175
F0.0049751243781094526
sg789
F0.0049751243781094526
sS'devices'
p3803
F0.0049751243781094526
sS'planet'
p3804
F0.024875621890547265
sg541
F0.0049751243781094526
sS'future'
p3805
F0.0049751243781094526
sg1077
F0.0049751243781094526
sg3429
F0.0049751243781094526
sS'acquisition'
p3806
F0.0049751243781094526
sS'process'
p3807
F0.0049751243781094526
sg120
F0.0049751243781094526
sS'hardware'
p3808
F0.0099502487562189053
sg3361
F0.014925373134328358
sS'need'
p3809
F0.0099502487562189053
sg1598
F0.0049751243781094526
sg3139
F0.0049751243781094526
sS'needs'
p3810
F0.0049751243781094526
sg3534
F0.014925373134328358
sS'core,'
p3811
F0.0049751243781094526
sS'mobile-first'
p3812
F0.029850746268656716
sS'cross'
p3813
F0.0049751243781094526
sS'majority'
p3814
F0.0049751243781094526
sg1239
F0.0049751243781094526
sg3578
F0.0049751243781094526
sS'higher'
p3815
F0.0099502487562189053
sS'Product'
p3816
F0.014925373134328358
sg3622
F0.0049751243781094526
sS'most'
p3817
F0.029850746268656716
sS'meaning'
p3818
F0.0049751243781094526
sS'experiences'
p3819
F0.014925373134328358
sg1323
F0.0049751243781094526
sg1195
F0.0049751243781094526
sS'data'
p3820
F0.0049751243781094526
sg3695
F0.014925373134328358
sS'synergies'
p3821
F0.0049751243781094526
sg2492
F0.0049751243781094526
sS'face'
p3822
F0.0099502487562189053
sg1430
F0.0049751243781094526
sS'organization'
p3823
F0.019900497512437811
ssg3311
(dp3824
S'\xe2\x80\x93'
p3825
F1
ssg3520
(dp3826
g996
F0.5
sS'as'
p3827
F0.5
ssg3407
(dp3828
S'and'
p3829
F1
ssg1604
(dp3830
S'between'
p3831
F1
ssg3452
(dp3832
S'for'
p3833
F1
ssg2850
(dp3834
S'world'
p3835
F0.8571428571428571
sS'world,'
p3836
F0.14285714285714285
ssg5
(dp3837
S'at'
p3838
F1
ssg1340
(dp3839
S'generated'
p3840
F1
ssg2015
(dp3841
S'infrastructure'
p3842
F1
ssg3747
(dp3843
S'of'
p3844
F1
ssg47
(dp3845
S'the'
p3846
F1
ssg3115
(dp3847
S'to'
p3848
F1
ssg579
(dp3849
S''
F1
ssg3241
(dp3850
S'by'
p3851
F0.5
sS'in'
p3852
F0.5
ssg8
(dp3853
g2086
F1
ssg2621
(dp3854
g3053
F1
ssg3765
(dp3855
S'and'
p3856
F0.058823529411764705
sS''
F0.6470588235294118
sS'with'
p3857
F0.11764705882352941
sS'is'
p3858
F0.058823529411764705
sg2028
F0.058823529411764705
sg1944
F0.058823529411764705
ssg914
(dp3859
S''
F1
ssg237
(dp3860
S'overall'
p3861
F0.10000000000000001
sS'strategy'
p3862
F0.20000000000000001
sg476
F0.10000000000000001
sS'applications,'
p3863
F0.10000000000000001
sS'digital'
p3864
F0.29999999999999999
sS'services'
p3865
F0.10000000000000001
sS'strategic'
p3866
F0.10000000000000001
ssg3201
(dp3867
S'living'
p3868
F0.5
sS'cities,'
p3869
F0.5
ssS'alignment'
p3870
(dp3871
S''
F0.20000000000000001
sS'on'
p3872
F0.20000000000000001
sS'with'
p3873
F0.20000000000000001
sS'across'
p3874
F0.20000000000000001
sS'of'
p3875
F0.20000000000000001
ssS'web'
p3876
(dp3877
S'and'
p3878
F1
ssS'datacenters'
p3879
(dp3880
S'and'
p3881
F1
ssg1694
(dp3882
S'and'
p3883
F1
ssg3537
(dp3884
S''
F1
ssg382
(dp3885
S'of'
p3886
F1
ssg939
(dp3887
S'and'
p3888
F1
ssS'ease'
p3889
(dp3890
S''
F1
ssg293
(dp3891
S'personal'
p3892
F0.25
sg320
F0.25
sS'Product'
p3893
F0.25
sg1601
F0.25
ssg2288
(dp3894
S'an'
p3895
F1
ssS'capabilities'
p3896
(dp3897
S'to'
p3898
F1
ssg3752
(dp3899
S'to'
p3900
F1
ssg1265
(dp3901
S'and'
p3902
F0.5
sS'to'
p3903
F0.5
ssg307
(dp3904
S'the'
p3905
F0.5
sg3000
F0.5
ssg200
(dp3906
S'their'
p3907
F1
ssg1209
(dp3908
g328
F1
ssg3477
(dp3909
S'for'
p3910
F1
ssg488
(dp3911
S'and'
p3912
F1
ssg923
(dp3913
g2328
F1
ssg974
(dp3914
S'a'
F0.33333333333333331
sS'great'
p3915
F0.33333333333333331
sS'described'
p3916
F0.33333333333333331
ssg203
(dp3917
S'deliver'
p3918
F1
ssg16
(dp3919
S'doing'
p3920
F1
ssg3758
(dp3921
S'and'
p3922
F0.66666666666666663
sS'around'
p3923
F0.33333333333333331
ssg204
(dp3924
S'steps'
p3925
F0.25
sg331
F0.75
ssg68
(dp3926
S'July'
p3927
F1
ssg1103
(dp3928
S'and'
p3929
F0.18181818181818182
sS''
F0.27272727272727271
sS'love'
p3930
F0.090909090909090912
sS'is'
p3931
F0.090909090909090912
sS'to'
p3932
F0.090909090909090912
sS'in'
p3933
F0.090909090909090912
sS'need'
p3934
F0.18181818181818182
ssg3759
(dp3935
S'of'
p3936
F1
ssS'around'
p3937
(dp3938
S'building'
p3939
F0.16666666666666666
sS'this'
p3940
F0.16666666666666666
sS'us'
p3941
F0.16666666666666666
sS'applications'
p3942
F0.16666666666666666
sS'our'
p3943
F0.16666666666666666
sS'the'
p3944
F0.16666666666666666
ssg929
(dp3945
S'personal'
p3946
F1
ssS'represents'
p3947
(dp3948
S'the'
p3949
F1
ssg208
(dp3950
S'opportunities'
p3951
F1
ssg1098
(dp3952
g1257
F1
ssg538
(dp3953
S'and'
p3954
F1
ssg3694
(dp3955
S'camera'
p3956
F1
ssg2271
(dp3957
S'today'
p3958
F1
ssg3034
(dp3959
S''
F1
ssg1433
(dp3960
S'changes'
p3961
F1
ssS'know'
p3962
(dp3963
S'and'
p3964
F0.5
sS'the'
p3965
F0.5
ssg3763
(dp3966
S'of'
p3967
F1
ssg1440
(dp3968
S'and'
p3969
F1
ssg2988
(dp3970
S'data'
p3971
F0.5
sS'time'
p3972
F0.5
ssg1802
(dp3973
S'and'
p3974
F0.125
sg451
F0.125
sg3041
F0.125
sS'value'
p3975
F0.125
sg3231
F0.125
sg1698
F0.125
sS'as'
p3976
F0.125
sS'opportunity'
p3977
F0.125
ssg2321
(dp3978
S'by'
p3979
F1
ssg358
(dp3980
S'building'
p3981
F0.083333333333333329
sg1674
F0.083333333333333329
sS'chatting'
p3982
F0.083333333333333329
sS'Universal'
p3983
F0.083333333333333329
sS'we'
p3984
F0.083333333333333329
sS'helping'
p3985
F0.083333333333333329
sg3626
F0.083333333333333329
sg3174
F0.083333333333333329
sg3654
F0.083333333333333329
sg727
F0.083333333333333329
sg1695
F0.083333333333333329
sS'booking'
p3986
F0.083333333333333329
ssg1804
(dp3987
S'to'
p3988
F1
ssg52
(dp3989
S''
F1
ssg1134
(dp3990
S'and'
p3991
F1
ssS'helpful'
p3992
(dp3993
S''
F0.5
sS'in'
p3994
F0.5
ssg2863
(dp3995
S''
F0.20000000000000001
sS'of'
p3996
F0.20000000000000001
sS'in'
p3997
F0.59999999999999998
ssg25
(dp3998
g3447
F1
ssg2473
(dp3999
g2735
F1
ssg96
(dp4000
S''
F0.5
sS'\xe2\x80\x93'
p4001
F0.5
ssS'units'
p4002
(dp4003
S'into'
p4004
F1
ssS'specific'
p4005
(dp4006
S'focus'
p4007
F1
ssg2360
(dp4008
S'from'
p4009
F0.5
sS'for'
p4010
F0.5
ssg100
(dp4011
S''
F0.66666666666666663
sS'by'
p4012
F0.33333333333333331
ssg366
(dp4013
S'forward'
p4014
F0.5
sS'are'
p4015
F0.5
ssg63
(dp4016
S'people'
p4017
F1
ssg3401
(dp4018
S'products'
p4019
F0.33333333333333331
sS'more'
p4020
F0.66666666666666663
ssg1666
(dp4021
S'and'
p4022
F1
ssg814
(dp4023
S'and'
p4024
F0.33333333333333331
sg3947
F0.1111111111111111
sg2247
F0.1111111111111111
sS'for'
p4025
F0.1111111111111111
sS''
F0.1111111111111111
sS'will'
p4026
F0.1111111111111111
sS'to'
p4027
F0.1111111111111111
ssg1819
(dp4028
g2403
F1
ssg3677
(dp4029
S'new'
p4030
F0.5
sg2966
F0.5
ssg2363
(dp4031
S'these'
p4032
F0.16666666666666666
sS''
F0.16666666666666666
sS'company'
p4033
F0.33333333333333331
sS'it'
p4034
F0.16666666666666666
sS'the'
p4035
F0.16666666666666666
ssg28
(dp4036
S'we'
p4037
F1
ssg3774
(dp4038
S'culture'
p4039
F0.25
sg3433
F0.25
sg3896
F0.25
sS'organization'
p4040
F0.25
ssg1532
(dp4041
S'and'
p4042
F0.66666666666666663
sS'services,'
p4043
F0.33333333333333331
ssg3156
(dp4044
S'and'
p4045
F0.16666666666666666
sg3569
F0.041666666666666664
sS'move'
p4046
F0.041666666666666664
sS'managers'
p4047
F0.041666666666666664
sS''
F0.041666666666666664
sg1212
F0.125
sg2421
F0.083333333333333329
sS'will'
p4048
F0.041666666666666664
sS'to'
p4049
F0.125
sS'are'
p4050
F0.041666666666666664
sS'define'
p4051
F0.041666666666666664
sS'with'
p4052
F0.125
sS'think'
p4053
F0.041666666666666664
sg3962
F0.041666666666666664
ssg2314
(dp4054
g3879
F0.33333333333333331
sS'security'
p4055
F0.33333333333333331
sS'Company'
p4056
F0.33333333333333331
ssg3625
(dp4057
S'with'
p4058
F1
ssg1161
(dp4059
S'changes'
p4060
F0.25
sS'areas,'
p4061
F0.25
sS'additional'
p4062
F0.25
sS'of'
p4063
F0.25
ssg3394
(dp4064
S'to'
p4065
F1
ssg2085
(dp4066
S''
F1
ssg748
(dp4067
S'and'
p4068
F0.16666666666666666
sS''
F0.33333333333333331
sS'for'
p4069
F0.33333333333333331
sS'that'
p4070
F0.16666666666666666
ssg1969
(dp4071
S'and'
p4072
F0.25
sS''
F0.25
sS'has'
p4073
F0.25
sS'opportunity'
p4074
F0.25
ssg267
(dp4075
S'our'
p4076
F0.33333333333333331
sS'the'
p4077
F0.33333333333333331
sS'their'
p4078
F0.33333333333333331
ssS'X'
(dp4079
S'product'
p4080
F0.25
sS'products'
p4081
F0.5
sS'designs'
p4082
F0.25
ssg3789
(dp4083
S'in'
p4084
F1
ssg1445
(dp4085
S''
F1
ssg3382
(dp4086
S'our'
p4087
F1
ssg3205
(dp4088
S'as'
p4089
F1
ssg3577
(dp4090
S'in'
p4091
F1
ssg3786
(dp4092
S'importance'
p4093
F0.14285714285714285
sg3274
F0.42857142857142855
sg3870
F0.2857142857142857
sg1580
F0.14285714285714285
ssg2869
(dp4094
g1293
F1
ssg1851
(dp4095
S'future'
p4096
F1
ssS'&'
(dp4097
S'collaboration'
p4098
F1
ssg3779
(dp4099
S'we'
p4100
F1
ssS'for'
p4101
(dp4102
g92
F0.035714285714285712
sg1135
F0.017857142857142856
sS'people'
p4103
F0.053571428571428568
sS'meetings'
p4104
F0.017857142857142856
sS'it'
p4105
F0.017857142857142856
sS'product'
p4106
F0.017857142857142856
sS'our'
p4107
F0.053571428571428568
sS'your'
p4108
F0.017857142857142856
sS'Product'
p4109
F0.035714285714285712
sS'productivity'
p4110
F0.035714285714285712
sS'product,'
p4111
F0.017857142857142856
sS'their'
p4112
F0.035714285714285712
sS'other'
p4113
F0.017857142857142856
sg2627
F0.017857142857142856
sS'digital'
p4114
F0.017857142857142856
sS'new'
p4115
F0.017857142857142856
sS'generating'
p4116
F0.017857142857142856
sS'phones,'
p4117
F0.017857142857142856
sg956
F0.017857142857142856
sS'company'
p4118
F0.017857142857142856
sS'every'
p4119
F0.035714285714285712
sg117
F0.017857142857142856
sg2711
F0.017857142857142856
sg2596
F0.035714285714285712
sS'organizations'
p4120
F0.017857142857142856
sS'about'
p4121
F0.017857142857142856
sg3701
F0.017857142857142856
sS'many'
p4122
F0.017857142857142856
sg2755
F0.017857142857142856
sS'us'
p4123
F0.035714285714285712
sS'each'
p4124
F0.017857142857142856
sS'the'
p4125
F0.25
ssS'severance'
p4126
(dp4127
S'to'
p4128
F0.5
sg1933
F0.5
ssg2909
(dp4129
S''
F1
ssg3284
(dp4130
S'and'
p4131
F0.33333333333333331
sg171
F0.33333333333333331
sS'developer'
p4132
F0.33333333333333331
ssg2871
(dp4133
S'making'
p4134
F1
ssg917
(dp4135
S'and'
p4136
F1
ssS'extensively'
p4137
(dp4138
S'using'
p4139
F1
ssg2702
(dp4140
S'to'
p4141
F0.33333333333333331
sg3937
F0.33333333333333331
sS'in'
p4142
F0.33333333333333331
ssg1697
(dp4143
S'and'
p4144
F1
ssS'does'
p4145
(dp4146
g1641
F1
ssg1107
(dp4147
S'is'
p4148
F1
ssg3790
(dp4149
S''
F0.1111111111111111
sS'for'
p4150
F0.33333333333333331
sS'in'
p4151
F0.1111111111111111
sS'to'
p4152
F0.1111111111111111
sS'dynamics,'
p4153
F0.1111111111111111
sg489
F0.1111111111111111
sS'approach'
p4154
F0.1111111111111111
ssg2873
(dp4155
S'ideas'
p4156
F1
ssg1837
(dp4157
S''
F0.25
sS'processes'
p4158
F0.125
sS'from'
p4159
F0.125
sS'that'
p4160
F0.125
sg3583
F0.125
sS'with'
p4161
F0.125
sS'investments'
p4162
F0.125
ssg37
(dp4163
S'is'
p4164
F1
ssg3590
(dp4165
g2204
F0.33333333333333331
sS'segments,'
p4166
F0.33333333333333331
sg3187
F0.33333333333333331
ssg3986
(dp4167
S'a'
F1
ssg226
(dp4168
g2054
F0.028571428571428571
sg3157
F0.028571428571428571
sS'particularly'
p4169
F0.028571428571428571
sg1036
F0.028571428571428571
sg1718
F0.028571428571428571
sS'balanced'
p4170
F0.028571428571428571
sS'our'
p4171
F0.028571428571428571
sS'even'
p4172
F0.028571428571428571
sg3657
F0.057142857142857141
sS'responsible'
p4173
F0.028571428571428571
sS'3'
F0.028571428571428571
sg877
F0.028571428571428571
sg762
F0.028571428571428571
sS'more'
p4174
F0.14285714285714285
sS'showcased'
p4175
F0.028571428571428571
sg607
F0.028571428571428571
sg1605
F0.028571428571428571
sg3303
F0.028571428571428571
sg1317
F0.028571428571428571
sg2163
F0.028571428571428571
sS'unique'
p4176
F0.028571428571428571
sg3092
F0.028571428571428571
sS'on'
p4177
F0.028571428571428571
sS'made'
p4178
F0.028571428571428571
sg1684
F0.028571428571428571
sg2487
F0.028571428571428571
sg2963
F0.028571428571428571
sS'customer-obsessed,'
p4179
F0.028571428571428571
sS'the'
p4180
F0.028571428571428571
sS'treated'
p4181
F0.028571428571428571
ssg1373
(dp4182
S'focus'
p4183
F1
ssg2516
(dp4184
S'Our'
p4185
F1
ssg2355
(dp4186
S'our'
p4187
F0.33333333333333331
sS'all'
p4188
F0.33333333333333331
sS'across'
p4189
F0.33333333333333331
ssg1043
(dp4190
S'and'
p4191
F0.33333333333333331
sS'innovation'
p4192
F0.33333333333333331
sg1638
F0.33333333333333331
ssg1795
(dp4193
g2848
F0.052631578947368418
sS'on'
p4194
F0.10526315789473684
sg2720
F0.26315789473684209
sS'for'
p4195
F0.052631578947368418
sS''
F0.10526315789473684
sg1147
F0.052631578947368418
sS'of'
p4196
F0.052631578947368418
sS'value'
p4197
F0.052631578947368418
sS'continuity'
p4198
F0.052631578947368418
sg4002
F0.052631578947368418
sg2468
F0.052631578947368418
sg3491
F0.10526315789473684
ssg2881
(dp4199
g2788
F1
ssg2781
(dp4200
S'with'
p4201
F0.5
sg904
F0.5
ssS'Skype'
p4202
(dp4203
g2430
F1
ssg3414
(dp4204
S'to'
p4205
F1
ssg2548
(dp4206
S'tablets'
p4207
F1
ssg3669
(dp4208
S'and'
p4209
F0.33333333333333331
sS'to'
p4210
F0.33333333333333331
sS'are'
p4211
F0.33333333333333331
ssg4153
(dp4212
S'our'
p4213
F1
ssg2653
(dp4214
S'to'
p4215
F1
ssS'shifting'
p4216
(dp4217
S'our'
p4218
F0.5
sS'select'
p4219
F0.5
ssg1058
(dp4220
S"I've"
p4221
F1
ssg2841
(dp4222
S'business'
p4223
F1
ssg1361
(dp4224
g766
F1
ssg1781
(dp4225
S'operations'
p4226
F1
ssg4175
(dp4227
S'on'
p4228
F1
ssS'by'
p4229
(dp4230
g719
F0.058823529411764705
sS'shifting'
p4231
F0.058823529411764705
sg1888
F0.058823529411764705
sS'these'
p4232
F0.058823529411764705
sg3113
F0.058823529411764705
sS'up'
p4233
F0.058823529411764705
sS'two'
p4234
F0.058823529411764705
sg3121
F0.11764705882352941
sg3528
F0.058823529411764705
sg359
F0.11764705882352941
sg2384
F0.11764705882352941
sS'experiences'
p4235
F0.058823529411764705
sg803
F0.058823529411764705
sS'devices,'
p4236
F0.058823529411764705
ssg1383
(dp4237
S'for'
p4238
F1
ssg44
(dp4239
S'and'
p4240
F1
ssg3403
(dp4241
S'for'
p4242
F1
ssg2142
(dp4243
S'and'
p4244
F0.020408163265306121
sS'all'
p4245
F0.020408163265306121
sS'measurable'
p4246
F0.020408163265306121
sS'breakthrough'
p4247
F0.020408163265306121
sS'dual'
p4248
F0.040816326530612242
sS'our'
p4249
F0.10204081632653061
sS'your'
p4250
F0.020408163265306121
sS'what'
p4251
F0.040816326530612242
sS'productivity'
p4252
F0.020408163265306121
sS'driving'
p4253
F0.020408163265306121
sS'Company'
p4254
F0.020408163265306121
sS'accountability'
p4255
F0.020408163265306121
sS'how'
p4256
F0.020408163265306121
sS'other'
p4257
F0.020408163265306121
sg2644
F0.020408163265306121
sS'that'
p4258
F0.020408163265306121
sS'IT'
p4259
F0.020408163265306121
sS'it'
p4260
F0.020408163265306121
sg1438
F0.020408163265306121
sS'device'
p4261
F0.020408163265306121
sg1320
F0.020408163265306121
sS'maintaining'
p4262
F0.020408163265306121
sS'a'
F0.020408163265306121
sS'screens'
p4263
F0.020408163265306121
sg3325
F0.020408163265306121
sS'this'
p4264
F0.040816326530612242
sg1113
F0.040816326530612242
sS'Product'
p4265
F0.020408163265306121
sS'time'
p4266
F0.020408163265306121
sS'making'
p4267
F0.020408163265306121
sS'the'
p4268
F0.20408163265306123
sS'where'
p4269
F0.020408163265306121
ssS'about'
p4270
(dp4271
S'productivity'
p4272
F0.125
sg1846
F0.125
sS'this'
p4273
F0.125
sg4216
F0.125
sS'the'
p4274
F0.25
sS'interconnected'
p4275
F0.125
sg2471
F0.125
ssg2227
(dp4276
S'to'
p4277
F0.33333333333333331
sS'from'
p4278
F0.33333333333333331
sS'together'
p4279
F0.33333333333333331
ssg2173
(dp4280
S'we'
p4281
F1
ssg3817
(dp4282
S'impact'
p4283
F0.14285714285714285
sS'concentrated'
p4284
F0.14285714285714285
sS'secure,'
p4285
F0.14285714285714285
sg3523
F0.14285714285714285
sS'value'
p4286
F0.14285714285714285
sg146
F0.14285714285714285
sS'rich'
p4287
F0.14285714285714285
ssg97
(dp4288
S'control'
p4289
F0.010752688172043012
sS'all'
p4290
F0.021505376344086023
sg108
F0.010752688172043012
sS'Company\xe2\x80\x99s'
p4291
F0.032258064516129031
sg114
F0.010752688172043012
sS'people'
p4292
F0.010752688172043012
sg457
F0.032258064516129031
sS'meetings'
p4293
F0.010752688172043012
sS'an'
p4294
F0.010752688172043012
sS'select'
p4295
F0.010752688172043012
sS'individual'
p4296
F0.010752688172043012
sS'us'
p4297
F0.010752688172043012
sS'ambient'
p4298
F0.010752688172043012
sS'our'
p4299
F0.10752688172043011
sg3514
F0.010752688172043012
sS'your'
p4300
F0.021505376344086023
sS'cloud'
p4301
F0.010752688172043012
sS'information'
p4302
F0.021505376344086023
sg510
F0.010752688172043012
sg2326
F0.010752688172043012
sS'productivity'
p4303
F0.010752688172043012
sS'management,'
p4304
F0.010752688172043012
sS'opportunity'
p4305
F0.010752688172043012
sS'Company'
p4306
F0.010752688172043012
sS'integration'
p4307
F0.010752688172043012
sS'reality'
p4308
F0.010752688172043012
sS'their'
p4309
F0.043010752688172046
sS'market'
p4310
F0.010752688172043012
sS'innovation'
p4311
F0.021505376344086023
sg2993
F0.010752688172043012
sS'a'
F0.021505376344086023
sS'that'
p4312
F0.010752688172043012
sg334
F0.010752688172043012
sg1168
F0.010752688172043012
sS'you'
p4313
F0.010752688172043012
sS'every'
p4314
F0.010752688172043012
sS'nearly'
p4315
F0.010752688172043012
sg641
F0.010752688172043012
sS'device'
p4316
F0.010752688172043012
sg1335
F0.010752688172043012
sg3087
F0.010752688172043012
sS'12,500'
p4317
F0.010752688172043012
sS'devices,'
p4318
F0.010752688172043012
sg1461
F0.010752688172043012
sg384
F0.010752688172043012
sS'people,'
p4319
F0.010752688172043012
sS'these'
p4320
F0.032258064516129031
sg3106
F0.010752688172043012
sS'employees'
p4321
F0.010752688172043012
sS'this,'
p4322
F0.032258064516129031
sS'devices'
p4323
F0.010752688172043012
sS'this'
p4324
F0.021505376344086023
sg1419
F0.010752688172043012
sS'time'
p4325
F0.010752688172043012
sS'the'
p4326
F0.12903225806451613
sS'changes'
p4327
F0.010752688172043012
ssg1807
(dp4328
g4145
F0.5
sS'that'
p4329
F0.5
ssg871
(dp4330
S'and'
p4331
F0.25
sg3439
F0.25
sS'you'
p4332
F0.25
sS''
F0.25
ssg3818
(dp4333
S'and'
p4334
F0.5
sS'of'
p4335
F0.5
ssg2713
(dp4336
S'and'
p4337
F1
ssg2129
(dp4338
S'our'
p4339
F1
ssg3734
(dp4340
S'to'
p4341
F1
ssg2177
(dp4342
S'of'
p4343
F1
ssg4179
(dp4344
g1132
F1
ssg3391
(dp4345
S'that'
p4346
F1
ssg2002
(dp4347
S'on'
p4348
F1
ssg1543
(dp4349
g3137
F0.5
sg4137
F0.5
ssg3717
(dp4350
S'as'
p4351
F1
ssg915
(dp4352
S'we'
p4353
F1
ssg940
(dp4354
S'to'
p4355
F1
ssg1262
(dp4356
S''
F0.2857142857142857
sS'\xe2\x80\x93'
p4357
F0.14285714285714285
sS'that'
p4358
F0.14285714285714285
sS'into'
p4359
F0.14285714285714285
sS'to'
p4360
F0.14285714285714285
sS'are'
p4361
F0.14285714285714285
ssS'financial'
p4362
(dp4363
g981
F1
ssg429
(dp4364
g1026
F0.16666666666666666
sS'service'
p4365
F0.16666666666666666
sS'is'
p4366
F0.16666666666666666
sg1622
F0.16666666666666666
sS'next'
p4367
F0.16666666666666666
sg3251
F0.16666666666666666
ssg2241
(dp4368
S'in'
p4369
F1
ssg4198
(dp4370
S''
F1
ssg3099
(dp4371
S'process'
p4372
F0.33333333333333331
sS'synergies'
p4373
F0.33333333333333331
sS'opportunities'
p4374
F0.33333333333333331
ssg48
(dp4375
S'people'
p4376
F1
ssg4047
(dp4377
S''
F1
ssg2344
(dp4378
S'all'
p4379
F0.1111111111111111
sS'Company'
p4380
F0.1111111111111111
sg441
F0.1111111111111111
sS'one'
p4381
F0.22222222222222221
sg725
F0.1111111111111111
sS'our'
p4382
F0.1111111111111111
sS'the'
p4383
F0.22222222222222221
ssg459
(dp4384
S'Company'
p4385
F0.83333333333333337
sS'an'
p4386
F0.16666666666666666
ssg1065
(dp4387
S'as'
p4388
F1
ssg51
(dp4389
S'all'
p4390
F1
ssg77
(dp4391
S'today'
p4392
F1
ssg754
(dp4393
S''
F1
ssg2067
(dp4394
S'and'
p4395
F0.5
sS'engineering'
p4396
F0.5
ssg2249
(dp4397
S'and'
p4398
F0.071428571428571425
sS''
F0.14285714285714285
sS'is'
p4399
F0.071428571428571425
sg1163
F0.071428571428571425
sS'experiences,'
p4400
F0.071428571428571425
sS'hardware'
p4401
F0.071428571428571425
sS'to'
p4402
F0.071428571428571425
sS'while'
p4403
F0.071428571428571425
sS'in'
p4404
F0.071428571428571425
sS'strategy'
p4405
F0.071428571428571425
sS'OS'
p4406
F0.14285714285714285
sg2348
F0.071428571428571425
ssS'appropriate'
p4407
(dp4408
g4362
F0.5
sS'business'
p4409
F0.5
ssg3788
(dp4410
S'is'
p4411
F1
ssg2730
(dp4412
S'to'
p4413
F1
ssg217
(dp4414
S'my'
p4415
F0.5
sS'each'
p4416
F0.5
ssg4170
(dp4417
S'with'
p4418
F1
ssg2889
(dp4419
S'OS'
p4420
F1
ssg578
(dp4421
S'learning'
p4422
F1
ssg4300
(dp4423
S'support'
p4424
F0.14285714285714285
sg2263
F0.14285714285714285
sS'imagination'
p4425
F0.14285714285714285
sS'team'
p4426
F0.14285714285714285
sS'organization'
p4427
F0.14285714285714285
sS'Senior'
p4428
F0.14285714285714285
sg156
F0.14285714285714285
ssg1578
(dp4429
S'like'
p4430
F1
ssg2437
(dp4431
S'a'
F0.33333333333333331
sS'of'
p4432
F0.33333333333333331
sS'devices'
p4433
F0.33333333333333331
ssg4062
(dp4434
g1507
F0.5
sg2073
F0.5
ssg3605
(dp4435
S'our'
p4436
F1
ssg4181
(dp4437
S'with'
p4438
F1
ssg2901
(dp4439
S'models'
p4440
F0.25
sS'as'
p4441
F0.25
sg2525
F0.25
sS'existing'
p4442
F0.25
ssg1586
(dp4443
S'will'
p4444
F1
ssg1222
(dp4445
S'will'
p4446
F0.5
sg1177
F0.5
ssg3387
(dp4447
S'this'
p4448
F0.20000000000000001
sS'the'
p4449
F0.20000000000000001
sg3495
F0.20000000000000001
sS'as'
p4450
F0.20000000000000001
sg1731
F0.20000000000000001
ssg443
(dp4451
S'before'
p4452
F1
ssg4255
(dp4453
S''
F0.33333333333333331
sS'and'
p4454
F0.33333333333333331
sg3190
F0.33333333333333331
ssg3024
(dp4455
S'a'
F0.20000000000000001
sS'of'
p4456
F0.20000000000000001
sg1139
F0.20000000000000001
sg849
F0.20000000000000001
sS'to'
p4457
F0.20000000000000001
ssg812
(dp4458
S'that'
p4459
F1
ssg3956
(dp4460
S'technology'
p4461
F1
ssg54
(dp4462
S'company'
p4463
F0.5
sg699
F0.5
ssg500
(dp4464
S'of'
p4465
F1
ssg2018
(dp4466
S'we'
p4467
F0.66666666666666663
sg3620
F0.33333333333333331
ssg2635
(dp4468
S'and'
p4469
F1
ssS'forward'
p4470
(dp4471
S'and'
p4472
F0.33333333333333331
sS''
F0.33333333333333331
sS'in'
p4473
F0.33333333333333331
ssg525
(dp4474
g143
F0.20000000000000001
sg2563
F0.20000000000000001
sS'within'
p4475
F0.20000000000000001
sg3992
F0.20000000000000001
sS'an'
p4476
F0.20000000000000001
ssg2906
(dp4477
S'it'
p4478
F1
ssg2365
(dp4479
S'the'
p4480
F1
ssg2779
(dp4481
S'and'
p4482
F1
ssg336
(dp4483
S'price'
p4484
F1
ssg3446
(dp4485
S'and'
p4486
F1
ssg56
(dp4487
S'push'
p4488
F0.5
sg820
F0.5
ssg2996
(dp4489
g149
F0.5
sg389
F0.5
ssg4285
(dp4490
g2576
F1
ssg3732
(dp4491
S'our'
p4492
F0.25
sS'we'
p4493
F0.75
ssg3982
(dp4494
S'with'
p4495
F1
ssg3385
(dp4496
S'our'
p4497
F0.5
sg4126
F0.5
ssg2235
(dp4498
S'a'
F1
ssg3457
(dp4499
S'an'
p4500
F1
ssS'but'
p4501
(dp4502
S"it's"
p4503
F0.25
sg3161
F0.25
sS'it'
p4504
F0.25
sS'more'
p4505
F0.25
ssg1856
(dp4506
S'to'
p4507
F1
ssg1669
(dp4508
S'data'
p4509
F0.5
sg2541
F0.5
ssg1376
(dp4510
S'with'
p4511
F1
ssg1866
(dp4512
S'and'
p4513
F0.14285714285714285
sg3876
F0.14285714285714285
sS'all'
p4514
F0.14285714285714285
sg1435
F0.14285714285714285
sg1530
F0.14285714285714285
sS'rich'
p4515
F0.14285714285714285
sg2077
F0.14285714285714285
ssg1481
(dp4516
S'productivity'
p4517
F1
ssg839
(dp4518
S'business'
p4519
F1
ssg3111
(dp4520
S'in'
p4521
F0.5
sg558
F0.5
ssg2910
(dp4522
S'company'
p4523
F1
ssg4052
(dp4524
S''
F0.018518518518518517
sg1994
F0.018518518518518517
sS'Company\xe2\x80\x99s'
p4525
F0.018518518518518517
sg2253
F0.018518518518518517
sg2663
F0.018518518518518517
sS'one'
p4526
F0.018518518518518517
sS'devices'
p4527
F0.018518518518518517
sS'our'
p4528
F0.055555555555555552
sS'its'
p4529
F0.018518518518518517
sS'what'
p4530
F0.018518518518518517
sS'severance'
p4531
F0.018518518518518517
sg3889
F0.018518518518518517
sS'accountability'
p4532
F0.018518518518518517
sg1555
F0.018518518518518517
sS'their'
p4533
F0.018518518518518517
sS'Delve'
p4534
F0.018518518518518517
sg3588
F0.018518518518518517
sS'product'
p4535
F0.018518518518518517
sg2408
F0.018518518518518517
sS'greater'
p4536
F0.018518518518518517
sg3075
F0.018518518518518517
sS'new'
p4537
F0.055555555555555552
sS'device'
p4538
F0.055555555555555552
sS'unique'
p4539
F0.018518518518518517
sS'friends'
p4540
F0.018518518518518517
sg665
F0.037037037037037035
sS'a'
F0.14814814814814814
sg1679
F0.018518518518518517
sS'Office'
p4541
F0.018518518518518517
sS'fewer'
p4542
F0.018518518518518517
sg4005
F0.018518518518518517
sg4202
F0.018518518518518517
sS'the'
p4543
F0.14814814814814814
ssg2913
(dp4544
g2273
F1
ssg4247
(dp4545
S'products'
p4546
F0.5
sS'innovation'
p4547
F0.5
ssg4178
(dp4548
S''
F1
ssg963
(dp4549
S'will'
p4550
F0.5
sS'on'
p4551
F0.5
ssS'Office'
p4552
(dp4553
g2997
F0.5
sS'from'
p4554
F0.5
ssg2079
(dp4555
S''
F0.66666666666666663
sS'around'
p4556
F0.33333333333333331
ssg3685
(dp4557
S'to'
p4558
F1
ssg4116
(dp4559
S'and'
p4560
F1
ssg4322
(dp4561
S'we'
p4562
F0.33333333333333331
sg2003
F0.33333333333333331
sg1093
F0.33333333333333331
ssg4433
(dp4563
S'and'
p4564
F0.29411764705882354
sS''
F0.11764705882352941
sS'\xe2\x80\x93'
p4565
F0.11764705882352941
sS'like'
p4566
F0.058823529411764705
sS'that'
p4567
F0.058823529411764705
sS'of'
p4568
F0.058823529411764705
sS'powered'
p4569
F0.058823529411764705
sS'will'
p4570
F0.11764705882352941
sS'are'
p4571
F0.058823529411764705
sS'by'
p4572
F0.058823529411764705
ssg3804
(dp4573
S''
F0.59999999999999998
sS'to'
p4574
F0.40000000000000002
ssg3335
(dp4575
S''
F0.5
sS'will'
p4576
F0.5
ssg2866
(dp4577
S'growth'
p4578
F1
ssg3239
(dp4579
S'data'
p4580
F1
ssg74
(dp4581
S'will'
p4582
F0.83333333333333337
sS'strive'
p4583
F0.16666666666666666
ssg1466
(dp4584
S'of'
p4585
F1
ssg1834
(dp4586
S'across'
p4587
F1
ssg3462
(dp4588
S'focus'
p4589
F0.5
sS'that'
p4590
F0.5
ssg2598
(dp4591
S'ambitious'
p4592
F1
ssg222
(dp4593
S'the'
p4594
F1
ssg1603
(dp4595
S'become'
p4596
F1
ssg4569
(dp4597
S'by'
p4598
F1
ssg1292
(dp4599
S'of'
p4600
F0.5
sS'in'
p4601
F0.5
ssg269
(dp4602
S'data'
p4603
F1
ssg1893
(dp4604
S'experiences'
p4605
F0.5
sg518
F0.5
ssg3666
(dp4606
S'other'
p4607
F1
ssg1085
(dp4608
S'to'
p4609
F1
ssg3021
(dp4610
g4552
F1
ssg1374
(dp4611
g4270
F1
ssg3813
(dp4612
S'company'
p4613
F1
ssg3668
(dp4614
S'impact'
p4615
F0.10000000000000001
sS'entire'
p4616
F0.10000000000000001
sS'end'
p4617
F0.10000000000000001
sg3713
F0.10000000000000001
sS'increasingly'
p4618
F0.20000000000000001
sg4407
F0.10000000000000001
sg2807
F0.10000000000000001
sg498
F0.10000000000000001
sS'opportunity'
p4619
F0.10000000000000001
ssg3642
(dp4620
S''
F1
ssg4425
(dp4621
S'and'
p4622
F1
ssg508
(dp4623
S'a'
F0.23999999999999999
sS'we'
p4624
F0.12
sg1633
F0.040000000000000001
sS'people'
p4625
F0.040000000000000001
sS'much'
p4626
F0.040000000000000001
sS'Company'
p4627
F0.040000000000000001
sS'well'
p4628
F0.12
sS'possible'
p4629
F0.040000000000000001
sg2012
F0.040000000000000001
sS'job'
p4630
F0.040000000000000001
sS'individuals'
p4631
F0.080000000000000002
sS'dual'
p4632
F0.040000000000000001
sS'some'
p4633
F0.040000000000000001
sS'the'
p4634
F0.040000000000000001
sg2251
F0.040000000000000001
ssg91
(dp4635
S'\xe2\x80\x93'
p4636
F1
ssg3838
(dp4637
S'a'
F0.083333333333333329
sg3530
F0.16666666666666666
sg415
F0.083333333333333329
sS'company'
p4638
F0.083333333333333329
sS'work'
p4639
F0.16666666666666666
sg1179
F0.083333333333333329
sS'the'
p4640
F0.25
sg1977
F0.083333333333333329
ssg3425
(dp4641
S'power'
p4642
F1
ssg32
(dp4643
g1702
F0.25
sg1828
F0.25
sS'ideas'
p4644
F0.25
sg1989
F0.25
ssg4583
(dp4645
S'to'
p4646
F1
ssg3822
(dp4647
S'of'
p4648
F1
ssg977
(dp4649
S'it'
p4650
F1
ssS'again'
p4651
(dp4652
g656
F1
ssg2927
(dp4653
g3484
F0.5
sS'phone'
p4654
F0.16666666666666666
sS'devices'
p4655
F0.33333333333333331
ssg4061
(dp4656
S'we'
p4657
F1
ssg1783
(dp4658
S'company'
p4659
F0.66666666666666663
sg4501
F0.33333333333333331
ssg1364
(dp4660
S'and'
p4661
F0.77777777777777779
sS'world'
p4662
F0.22222222222222221
ssg1636
(dp4663
S'for'
p4664
F1
ssg2011
(dp4665
S'of'
p4666
F1
ssg3700
(dp4667
S'we'
p4668
F1
ssg2930
(dp4669
S'cloud'
p4670
F1
ssg4308
(dp4671
S''
F1
ssg1793
(dp4672
g2766
F1
ssg2932
(dp4673
S'ecosystem'
p4674
F0.5
sS'needs'
p4675
F0.5
ssg1711
(dp4676
S'and'
p4677
F0.20000000000000001
sS'ecosystems'
p4678
F0.20000000000000001
sS'businesses'
p4679
F0.20000000000000001
sS'than'
p4680
F0.20000000000000001
sS'strategic'
p4681
F0.20000000000000001
ssg573
(dp4682
S'I'
F0.33333333333333331
sS'of'
p4683
F0.33333333333333331
sS'is'
p4684
F0.33333333333333331
ssg921
(dp4685
S'on'
p4686
F1
ssg922
(dp4687
g2170
F0.33333333333333331
sS'people'
p4688
F0.66666666666666663
ssg3438
(dp4689
S'world'
p4690
F0.052631578947368418
sS'life'
p4691
F0.26315789473684209
sS'work'
p4692
F0.63157894736842102
sg2727
F0.052631578947368418
ssg284
(dp4693
S'new'
p4694
F1
ssg4534
(dp4695
S'and'
p4696
F1
ssg1541
(dp4697
S'and'
p4698
F0.066666666666666666
sg4101
F0.13333333333333333
sS'that'
p4699
F0.066666666666666666
sS'I'
F0.066666666666666666
sS'is'
p4700
F0.066666666666666666
sS'will'
p4701
F0.26666666666666666
sS'to'
p4702
F0.066666666666666666
sS'can'
p4703
F0.20000000000000001
sS'want'
p4704
F0.066666666666666666
ssg2936
(dp4705
S''
F1
ssg1102
(dp4706
S'to'
p4707
F0.33333333333333331
sS'is'
p4708
F0.33333333333333331
sS'are'
p4709
F0.33333333333333331
ssg3388
(dp4710
S'the'
p4711
F1
ssg3418
(dp4712
g3249
F1
ssg3470
(dp4713
S''
F1
ssg3799
(dp4714
S'Company'
p4715
F0.5
sS'from'
p4716
F0.5
ssg3503
(dp4717
S'and'
p4718
F1
ssg3868
(dp4719
S'rooms,'
p4720
F1
ssg4440
(dp4721
S'will'
p4722
F0.5
sS''
F0.5
ssg577
(dp4723
S'could'
p4724
F1
ssg1506
(dp4725
g711
F1
ssg574
(dp4726
S'evolve'
p4727
F0.5
sS'like'
p4728
F0.5
ssg1896
(dp4729
g1871
F1
ssg3985
(dp4730
S'build'
p4731
F0.5
sS'people'
p4732
F0.5
ssg2955
(dp4733
S'services,'
p4734
F1
ssg3840
(dp4735
g4229
F1
ssg3218
(dp4736
S'to'
p4737
F1
ssg2984
(dp4738
S'within'
p4739
F1
ssg2119
(dp4740
S'in'
p4741
F1
ssg79
(dp4742
S'these'
p4743
F1
ssg4540
(dp4744
S'and'
p4745
F1
ssg433
(dp4746
S''
F1
ssg1629
(dp4747
g1312
F1
ssg2979
(dp4748
S'people'
p4749
F1
ssg2949
(dp4750
S'to'
p4751
F1
ssg3653
(dp4752
g3292
F0.066666666666666666
sS'from'
p4753
F0.13333333333333333
sS'for'
p4754
F0.066666666666666666
sS'people'
p4755
F0.066666666666666666
sS'starting'
p4756
F0.066666666666666666
sS'time'
p4757
F0.066666666666666666
sg3468
F0.13333333333333333
sS'are'
p4758
F0.066666666666666666
sS'in'
p4759
F0.066666666666666666
sS'our'
p4760
F0.066666666666666666
sS'core'
p4761
F0.066666666666666666
sS'technology'
p4762
F0.066666666666666666
sg3215
F0.066666666666666666
ssg1386
(dp4763
g2153
F1
ssg1487
(dp4764
S''
F1
ssg4654
(dp4765
g2571
F0.16666666666666666
sS'efforts'
p4766
F0.16666666666666666
sS'engineering'
p4767
F0.16666666666666666
sS'business'
p4768
F0.5
ssg3869
(dp4769
g3482
F1
ssg3101
(dp4770
S'and'
p4771
F0.66666666666666663
sS'to'
p4772
F0.33333333333333331
ssg3709
(dp4773
S'to'
p4774
F1
ssg82
(dp4775
S'As'
p4776
F1
ssg3086
(dp4777
S'to'
p4778
F1
ssg3253
(dp4779
g2186
F1
ssg84
(dp4780
S'a'
F0.2857142857142857
sg3019
F0.14285714285714285
sS'part'
p4781
F0.2857142857142857
sS'the'
p4782
F0.14285714285714285
sS'difficult'
p4783
F0.14285714285714285
ssg3508
(dp4784
S'in'
p4785
F1
ssg85
(dp4786
S'our'
p4787
F1
ssg4757
(dp4788
S''
F0.42857142857142855
sS'and'
p4789
F0.42857142857142855
sS'at'
p4790
F0.14285714285714285
ssg3406
(dp4791
g4470
F0.5
sS'into'
p4792
F0.5
ssg1800
(dp4793
S''
F1
ssg3688
(dp4794
S'our'
p4795
F0.33333333333333331
sS'with'
p4796
F0.33333333333333331
sS'at'
p4797
F0.33333333333333331
ssg245
(dp4798
S'so'
p4799
F1
ssg3614
(dp4800
S'and'
p4801
F1
ssg1090
(dp4802
g4651
F1
ss.